Archive member included to satisfy reference by file (symbol)

build/cooja/mtype560.a(simEnvChange.o)
                              build/cooja/mtype560.o (simDontFallAsleep)
build/cooja/mtype560.a(cooja_mt.o)
                              build/cooja/mtype560.o (cooja_mt_start)
build/cooja/mtype560.a(cooja_mtarch.o)
                              build/cooja/mtype560.a(cooja_mt.o) (cooja_mtarch_start)
build/cooja/mtype560.a(rtimer-arch.o)
                              build/cooja/mtype560.o (rtimer_arch_check)
build/cooja/mtype560.a(beep.o)
                              build/cooja/mtype560.o (beep_interface)
build/cooja/mtype560.a(leds-arch.o)
                              build/cooja/mtype560.o (leds_interface)
build/cooja/mtype560.a(moteid.o)
                              build/cooja/mtype560.o (moteid_interface)
build/cooja/mtype560.a(pir-sensor.o)
                              build/cooja/mtype560.o (pir_interface)
build/cooja/mtype560.a(rs232.o)
                              build/cooja/mtype560.o (rs232_interface)
build/cooja/mtype560.a(vib-sensor.o)
                              build/cooja/mtype560.o (vib_interface)
build/cooja/mtype560.a(clock.o)
                              build/cooja/mtype560.o (clock_interface)
build/cooja/mtype560.a(cooja-log.o)
                              build/cooja/mtype560.o (simlog_interface)
build/cooja/mtype560.a(cfs-cooja.o)
                              build/cooja/mtype560.o (cfs_interface)
build/cooja/mtype560.a(cooja-radio.o)
                              build/cooja/mtype560.o (radio_interface)
build/cooja/mtype560.a(eeprom.o)
                              build/cooja/mtype560.o (eeprom_interface)
build/cooja/mtype560.a(random.o)
                              build/cooja/mtype560.a(moteid.o) (random_init)
build/cooja/mtype560.a(sensors.o)
                              build/cooja/mtype560.a(pir-sensor.o) (sensors_changed)
build/cooja/mtype560.a(leds.o)
                              build/cooja/mtype560.a(leds-arch.o) (leds_get)
build/cooja/mtype560.a(gpio-hal-arch.o)
                              build/cooja/mtype560.a(leds-arch.o) (gpio_hal_arch_register_pin_callback)
build/cooja/mtype560.a(buttons.o)
                              build/cooja/mtype560.o (button_interface)
build/cooja/mtype560.a(deployment.o)
                              node.o (deployment_node_count)
build/cooja/mtype560.a(contiki-main.o)
                              build/cooja/mtype560.o (main)
build/cooja/mtype560.a(autostart.o)
                              build/cooja/mtype560.a(contiki-main.o) (autostart_start)
build/cooja/mtype560.a(log.o)
                              build/cooja/mtype560.a(contiki-main.o) (curr_log_level_main)
build/cooja/mtype560.a(energest.o)
                              build/cooja/mtype560.a(cooja-radio.o) (energest_total_time)
build/cooja/mtype560.a(etimer.o)
                              build/cooja/mtype560.a(contiki-main.o) (etimer_process)
build/cooja/mtype560.a(node-id.o)
                              node.o (node_id)
build/cooja/mtype560.a(ctimer.o)
                              build/cooja/mtype560.a(contiki-main.o) (ctimer_init)
build/cooja/mtype560.a(process.o)
                              build/cooja/mtype560.a(etimer.o) (process_current)
build/cooja/mtype560.a(rtimer.o)
                              build/cooja/mtype560.a(contiki-main.o) (rtimer_init)
build/cooja/mtype560.a(timer.o)
                              build/cooja/mtype560.a(etimer.o) (timer_set)
build/cooja/mtype560.a(list.o)
                              build/cooja/mtype560.a(ctimer.o) (list_init)
build/cooja/mtype560.a(button-hal.o)
                              build/cooja/mtype560.o (button_hal_init)
build/cooja/mtype560.a(serial-line.o)
                              build/cooja/mtype560.a(rs232.o) (serial_line_input_byte)
build/cooja/mtype560.a(gpio-hal.o)
                              build/cooja/mtype560.a(button-hal.o) (gpio_hal_register_handler)
build/cooja/mtype560.a(queuebuf.o)
                              build/cooja/mtype560.a(contiki-main.o) (queuebuf_init)
build/cooja/mtype560.a(packetbuf.o)
                              build/cooja/mtype560.a(cooja-radio.o) (packetbuf_clear)
build/cooja/mtype560.a(netstack.o)
                              build/cooja/mtype560.a(contiki-main.o) (netstack_init)
build/cooja/mtype560.a(linkaddr.o)
                              build/cooja/mtype560.a(deployment.o) (linkaddr_node_addr)
build/cooja/mtype560.a(tsch.o)
                              build/cooja/mtype560.a(cooja-radio.o) (tschmac_driver)
build/cooja/mtype560.a(uip-sr.o)
                              node.o (uip_sr_num_nodes)
build/cooja/mtype560.a(uip-ds6.o)
                              build/cooja/mtype560.a(deployment.o) (uip_ds6_set_addr_iid)
build/cooja/mtype560.a(tcpip.o)
                              build/cooja/mtype560.a(contiki-main.o) (tcpip_process)
build/cooja/mtype560.a(uip-ds6-route.o)
                              build/cooja/mtype560.a(uip-ds6.o) (uip_ds6_route_init)
build/cooja/mtype560.a(uip-ds6-nbr.o)
                              build/cooja/mtype560.a(uip-ds6.o) (uip_ds6_neighbors_init)
build/cooja/mtype560.a(uip6.o)
                              build/cooja/mtype560.a(contiki-main.o) (uip_lladdr)
build/cooja/mtype560.a(uip-nd6.o)
                              build/cooja/mtype560.a(uip6.o) (uip_nd6_init)
build/cooja/mtype560.a(simple-udp.o)
                              node.o (simple_udp_sendto)
build/cooja/mtype560.a(sicslowpan.o)
                              build/cooja/mtype560.a(contiki-main.o) (sicslowpan_driver)
build/cooja/mtype560.a(uiplib.o)
                              build/cooja/mtype560.a(log.o) (uiplib_ipaddr_snprint)
build/cooja/mtype560.a(rpl.o)
                              node.o (rpl_lite_driver)
build/cooja/mtype560.a(rpl-dag-root.o)
                              build/cooja/mtype560.a(rpl.o) (rpl_dag_root_is_root)
build/cooja/mtype560.a(watchdog.o)
                              build/cooja/mtype560.a(contiki-main.o) (watchdog_init)
build/cooja/mtype560.a(int-master.o)
                              build/cooja/mtype560.a(button-hal.o) (int_master_read_and_disable)
build/cooja/mtype560.a(cooja16.o)
                              build/cooja/mtype560.a(deployment.o) (deployment_cooja16)
build/cooja/mtype560.a(simple-energest)
                              build/cooja/mtype560.a(contiki-main.o) (simple_energest_init)
build/cooja/mtype560.a(orchestra.o)
                              build/cooja/mtype560.a(contiki-main.o) (orchestra_init)
build/cooja/mtype560.a(orchestra-rule-)
                              build/cooja/mtype560.a(orchestra.o) (eb_per_time_source)
build/cooja/mtype560.a(stimer.o)
                              build/cooja/mtype560.a(uip-ds6.o) (stimer_set)
build/cooja/mtype560.a(ringbufindex.o)
                              build/cooja/mtype560.a(tsch.o) (ringbufindex_init)
build/cooja/mtype560.a(memb.o)
                              build/cooja/mtype560.a(queuebuf.o) (memb_init)
build/cooja/mtype560.a(ringbuf.o)
                              build/cooja/mtype560.a(serial-line.o) (ringbuf_init)
build/cooja/mtype560.a(nbr-table.o)
                              build/cooja/mtype560.a(uip-ds6-nbr.o) (nbr_table_register)
build/cooja/mtype560.a(link-stats.o)
                              build/cooja/mtype560.a(tsch.o) (link_stats_packet_sent)
build/cooja/mtype560.a(mac-sequence.o)
                              build/cooja/mtype560.a(tsch.o) (mac_sequence_is_duplicate)
build/cooja/mtype560.a(mac.o)
                              build/cooja/mtype560.a(tsch.o) (mac_call_sent_callback)
build/cooja/mtype560.a(framer-802154.o)
                              build/cooja/mtype560.a(tsch.o) (framer_802154)
build/cooja/mtype560.a(frame802154.o)
                              build/cooja/mtype560.a(tsch.o) (frame802154_get_pan_id)
build/cooja/mtype560.a(tsch-queue.o)
                              build/cooja/mtype560.a(tsch.o) (n_eb)
build/cooja/mtype560.a(tsch-timeslot-t)
                              build/cooja/mtype560.a(tsch.o) (tsch_timeslot_timing_us_10000)
build/cooja/mtype560.a(tsch-schedule.o)
                              build/cooja/mtype560.a(tsch.o) (tsch_schedule_add_slotframe)
build/cooja/mtype560.a(tsch-slot-opera)
                              build/cooja/mtype560.a(tsch.o) (dequeued_ringbuf)
build/cooja/mtype560.a(tsch-packet.o)
                              build/cooja/mtype560.a(tsch-slot-opera) (tsch_packet_create_eack)
build/cooja/mtype560.a(tsch-security.o)
                              build/cooja/mtype560.a(tsch.o) (tsch_security_set_packetbuf_attr)
build/cooja/mtype560.a(tsch-rpl.o)
                              build/cooja/mtype560.a(tsch.o) (tsch_rpl_callback_ka_sent)
build/cooja/mtype560.a(tsch-adaptive-t)
                              build/cooja/mtype560.a(tsch-slot-opera) (tsch_timesync_update)
build/cooja/mtype560.a(uipbuf.o)
                              build/cooja/mtype560.a(tcpip.o) (uipbuf_clear)
build/cooja/mtype560.a(uip-icmp6.o)
                              build/cooja/mtype560.a(uip6.o) (uip_icmp6_input)
build/cooja/mtype560.a(uip-packetqueue)
                              build/cooja/mtype560.a(uip-ds6-nbr.o) (uip_packetqueue_new)
build/cooja/mtype560.a(uip-udp-packet.)
                              build/cooja/mtype560.a(simple-udp.o) (uip_udp_packet_sendto)
build/cooja/mtype560.a(rpl-icmp6.o)
                              build/cooja/mtype560.a(rpl.o) (rpl_icmp6_init)
build/cooja/mtype560.a(rpl-neighbor.o)
                              build/cooja/mtype560.a(tsch-rpl.o) (rpl_neighbor_get_ipaddr)
build/cooja/mtype560.a(rpl-dag.o)
                              build/cooja/mtype560.a(rpl.o) (curr_instance)
build/cooja/mtype560.a(rpl-timers.o)
                              build/cooja/mtype560.a(rpl-dag.o) (rpl_timers_schedule_periodic_dis)
build/cooja/mtype560.a(rpl-ext-header.)
                              build/cooja/mtype560.a(rpl.o) (rpl_ext_header_srh_get_next_hop)
build/cooja/mtype560.a(rpl-nbr-policy.)
                              build/cooja/mtype560.a(nbr-table.o) (rpl_nbr_policy_find_removable)
build/cooja/mtype560.a(rpl-mrhof.o)
                              build/cooja/mtype560.a(rpl-dag.o) (rpl_mrhof)
build/cooja/mtype560.a(orchestra-rule-)
                              build/cooja/mtype560.a(orchestra.o) (unicast_per_neighbor_rpl_ns)
build/cooja/mtype560.a(orchestra-rule-)
                              build/cooja/mtype560.a(orchestra.o) (default_common)
build/cooja/mtype560.a(ccm-star.o)
                              build/cooja/mtype560.a(tsch-security.o) (ccm_star_driver)
build/cooja/mtype560.a(aes-128.o)
                              build/cooja/mtype560.a(ccm-star.o) (aes_128_driver)
build/cooja/mtype560.a(frame802154e-ie)
                              build/cooja/mtype560.a(tsch-packet.o) (frame80215e_create_ie_header_ack_nack_time_correction)

As-needed library included to satisfy reference by file (symbol)

libc.so.6                     build/cooja/mtype560.a(random.o) (srand@@GLIBC_2.2.5)

Allocating common symbols
Common symbol       size              file

SHA_on              0x1               build/cooja/mtype560.a(rpl-icmp6.o)
simButtonIsDown     0x1               build/cooja/mtype560.a(buttons.o)
simOutDataBuffer    0x7d              build/cooja/mtype560.a(cooja-radio.o)
uip_ds6_prefix_list
                    0x60              build/cooja/mtype560.a(uip-ds6.o)
linkaddr_node_addr  0x8               build/cooja/mtype560.a(linkaddr.o)
simSerialReceivingFlag
                    0x1               build/cooja/mtype560.a(rs232.o)
simEEPROMData       0x400             build/cooja/mtype560.a(eeprom.o)
tsch_current_channel
                    0x1               build/cooja/mtype560.a(tsch-slot-opera)
tsch_hopping_sequence
                    0x4               build/cooja/mtype560.a(tsch.o)
periodic_timer      0x40              build/cooja/mtype560.a(link-stats.o)
simLoggedLength     0x4               build/cooja/mtype560.a(cooja-log.o)
simSerialReceivingLength
                    0x4               build/cooja/mtype560.a(rs232.o)
simEtimerPending    0x4               build/cooja/mtype560.a(simEnvChange.o)
energest_current_time
                    0x28              build/cooja/mtype560.a(energest.o)
uip_slen            0x2               build/cooja/mtype560.a(uip6.o)
uip_ds6_timer_periodic
                    0x20              build/cooja/mtype560.a(uip-ds6.o)
tsch_timing_us      0x18              build/cooja/mtype560.a(tsch.o)
input_ringbuf       0x3               build/cooja/mtype560.a(tsch-slot-opera)
simVibChanged       0x1               build/cooja/mtype560.a(vib-sensor.o)
tsch_current_channel_offset
                    0x1               build/cooja/mtype560.a(tsch-slot-opera)
simRtimerPending    0x4               build/cooja/mtype560.a(rtimer-arch.o)
button_hal_periodic_event
                    0x1               build/cooja/mtype560.a(button-hal.o)
uip_ds6_netif_addr_list_offset
                    0x1               build/cooja/mtype560.a(uip-ds6.o)
n_eb                0x8               build/cooja/mtype560.a(tsch-queue.o)
uip_lladdr          0x8               build/cooja/mtype560.a(uip6.o)
tsch_current_asn    0x8               build/cooja/mtype560.a(tsch.o)
button_hal_press_event
                    0x1               build/cooja/mtype560.a(button-hal.o)
simProcessRunValue  0x4               build/cooja/mtype560.a(simEnvChange.o)
serial_line_event_message
                    0x1               build/cooja/mtype560.a(serial-line.o)
uip_appdata         0x8               build/cooja/mtype560.a(uip6.o)
energest_current_mode
                    0x5               build/cooja/mtype560.a(energest.o)
referenceVar        0x8               build/cooja/mtype560.o
simCurrentTime      0x8               build/cooja/mtype560.a(clock.o)
simVibIsActive      0x1               build/cooja/mtype560.a(vib-sensor.o)
tsch_last_sync_time
                    0x8               build/cooja/mtype560.a(tsch-slot-opera)
uip_ds6_if          0x138             build/cooja/mtype560.a(uip-ds6.o)
dequeued_array      0x200             build/cooja/mtype560.a(tsch-slot-opera)
uip_flags           0x1               build/cooja/mtype560.a(uip6.o)
rx_count            0x8               build/cooja/mtype560.a(tsch.o)
uip_ds6_timer_ra    0x10              build/cooja/mtype560.a(uip-ds6.o)
min_drift_seen      0x4               build/cooja/mtype560.a(tsch.o)
simSerialReceivingData
                    0x800             build/cooja/mtype560.a(rs232.o)
simLoggedFlag       0x1               build/cooja/mtype560.a(cooja-log.o)
packetbuf_attrs     0x20              build/cooja/mtype560.a(packetbuf.o)
uip_ds6_addr_size   0x1               build/cooja/mtype560.a(uip-ds6.o)
uip_aligned_buf     0x500             build/cooja/mtype560.a(uip6.o)
simRtimerCurrentTicks
                    0x8               build/cooja/mtype560.a(rtimer-arch.o)
simRandomSeed       0x4               build/cooja/mtype560.a(moteid.o)
energest_total_time
                    0x28              build/cooja/mtype560.a(energest.o)
rpl_multicast_addr  0x10              build/cooja/mtype560.a(rpl.o)
simLoggedData       0x2000            build/cooja/mtype560.a(cooja-log.o)
tsch_timing         0x60              build/cooja/mtype560.a(tsch.o)
simEtimerNextExpirationTime
                    0x8               build/cooja/mtype560.a(simEnvChange.o)
SFA_on              0x1               build/cooja/mtype560.a(uip6.o)
dequeued_ringbuf    0x3               build/cooja/mtype560.a(tsch-slot-opera)
last_timesource_neighbor
                    0x8               build/cooja/mtype560.a(tsch-adaptive-t)
sync_count          0x8               build/cooja/mtype560.a(tsch.o)
uip_len             0x2               build/cooja/mtype560.a(uip6.o)
simButtonChanged    0x1               build/cooja/mtype560.a(buttons.o)
simRtimerNextExpirationTime
                    0x8               build/cooja/mtype560.a(rtimer-arch.o)
simPirIsActive      0x1               build/cooja/mtype560.a(pir-sensor.o)
simInDataBuffer     0x7d              build/cooja/mtype560.a(cooja-radio.o)
n_broadcast         0x8               build/cooja/mtype560.a(tsch-queue.o)
simPirChanged       0x1               build/cooja/mtype560.a(pir-sensor.o)
simBeeped           0x1               build/cooja/mtype560.a(beep.o)
tcpip_event         0x1               build/cooja/mtype560.a(tcpip.o)
uip_sappdata        0x8               build/cooja/mtype560.a(uip6.o)
tsch_join_priority  0x1               build/cooja/mtype560.a(tsch.o)
sensors_event       0x1               build/cooja/mtype560.a(sensors.o)
input_array         0x240             build/cooja/mtype560.a(tsch-slot-opera)
tx_count            0x8               build/cooja/mtype560.a(tsch.o)
orchestra_parent_linkaddr
                    0x8               build/cooja/mtype560.a(orchestra.o)
max_drift_seen      0x4               build/cooja/mtype560.a(tsch.o)
uip_udp_conns       0x140             build/cooja/mtype560.a(uip6.o)
button_hal_release_event
                    0x1               build/cooja/mtype560.a(button-hal.o)
tsch_hopping_sequence_length
                    0x4               build/cooja/mtype560.a(tsch.o)
packetbuf_addrs     0x10              build/cooja/mtype560.a(packetbuf.o)
uip_udp_conn        0x8               build/cooja/mtype560.a(uip6.o)
simMoteIDChanged    0x1               build/cooja/mtype560.a(moteid.o)
sensors_flags       0x4               build/cooja/mtype560.o
curr_instance       0x260             build/cooja/mtype560.a(rpl-dag.o)
simMoteID           0x4               build/cooja/mtype560.a(moteid.o)
uip_conn            0x8               build/cooja/mtype560.a(uip6.o)

Discarded input sections

 .note.GNU-stack
                0x0000000000000000        0x0 /usr/lib/gcc/x86_64-linux-gnu/7/../../../x86_64-linux-gnu/crti.o
 .note.GNU-stack
                0x0000000000000000        0x0 /usr/lib/gcc/x86_64-linux-gnu/7/crtbeginS.o
 .note.GNU-stack
                0x0000000000000000        0x0 node.o
 .note.GNU-stack
                0x0000000000000000        0x0 build/cooja/mtype560.o
 .note.GNU-stack
                0x0000000000000000        0x0 build/cooja/mtype560.a(simEnvChange.o)
 .note.GNU-stack
                0x0000000000000000        0x0 build/cooja/mtype560.a(cooja_mt.o)
 .note.GNU-stack
                0x0000000000000000        0x0 build/cooja/mtype560.a(cooja_mtarch.o)
 .note.GNU-stack
                0x0000000000000000        0x0 build/cooja/mtype560.a(rtimer-arch.o)
 .note.GNU-stack
                0x0000000000000000        0x0 build/cooja/mtype560.a(beep.o)
 .note.GNU-stack
                0x0000000000000000        0x0 build/cooja/mtype560.a(leds-arch.o)
 .note.GNU-stack
                0x0000000000000000        0x0 build/cooja/mtype560.a(moteid.o)
 .note.GNU-stack
                0x0000000000000000        0x0 build/cooja/mtype560.a(pir-sensor.o)
 .note.GNU-stack
                0x0000000000000000        0x0 build/cooja/mtype560.a(rs232.o)
 .note.GNU-stack
                0x0000000000000000        0x0 build/cooja/mtype560.a(vib-sensor.o)
 .note.GNU-stack
                0x0000000000000000        0x0 build/cooja/mtype560.a(clock.o)
 .note.GNU-stack
                0x0000000000000000        0x0 build/cooja/mtype560.a(cooja-log.o)
 .note.GNU-stack
                0x0000000000000000        0x0 build/cooja/mtype560.a(cfs-cooja.o)
 .note.GNU-stack
                0x0000000000000000        0x0 build/cooja/mtype560.a(cooja-radio.o)
 .note.GNU-stack
                0x0000000000000000        0x0 build/cooja/mtype560.a(eeprom.o)
 .note.GNU-stack
                0x0000000000000000        0x0 build/cooja/mtype560.a(random.o)
 .note.GNU-stack
                0x0000000000000000        0x0 build/cooja/mtype560.a(sensors.o)
 .note.GNU-stack
                0x0000000000000000        0x0 build/cooja/mtype560.a(leds.o)
 .note.GNU-stack
                0x0000000000000000        0x0 build/cooja/mtype560.a(gpio-hal-arch.o)
 .note.GNU-stack
                0x0000000000000000        0x0 build/cooja/mtype560.a(buttons.o)
 .note.GNU-stack
                0x0000000000000000        0x0 build/cooja/mtype560.a(deployment.o)
 .note.GNU-stack
                0x0000000000000000        0x0 build/cooja/mtype560.a(contiki-main.o)
 .note.GNU-stack
                0x0000000000000000        0x0 build/cooja/mtype560.a(autostart.o)
 .note.GNU-stack
                0x0000000000000000        0x0 build/cooja/mtype560.a(log.o)
 .note.GNU-stack
                0x0000000000000000        0x0 build/cooja/mtype560.a(energest.o)
 .note.GNU-stack
                0x0000000000000000        0x0 build/cooja/mtype560.a(etimer.o)
 .note.GNU-stack
                0x0000000000000000        0x0 build/cooja/mtype560.a(node-id.o)
 .note.GNU-stack
                0x0000000000000000        0x0 build/cooja/mtype560.a(ctimer.o)
 .note.GNU-stack
                0x0000000000000000        0x0 build/cooja/mtype560.a(process.o)
 .note.GNU-stack
                0x0000000000000000        0x0 build/cooja/mtype560.a(rtimer.o)
 .note.GNU-stack
                0x0000000000000000        0x0 build/cooja/mtype560.a(timer.o)
 .note.GNU-stack
                0x0000000000000000        0x0 build/cooja/mtype560.a(list.o)
 .note.GNU-stack
                0x0000000000000000        0x0 build/cooja/mtype560.a(button-hal.o)
 .note.GNU-stack
                0x0000000000000000        0x0 build/cooja/mtype560.a(serial-line.o)
 .note.GNU-stack
                0x0000000000000000        0x0 build/cooja/mtype560.a(gpio-hal.o)
 .note.GNU-stack
                0x0000000000000000        0x0 build/cooja/mtype560.a(queuebuf.o)
 .note.GNU-stack
                0x0000000000000000        0x0 build/cooja/mtype560.a(packetbuf.o)
 .note.GNU-stack
                0x0000000000000000        0x0 build/cooja/mtype560.a(netstack.o)
 .note.GNU-stack
                0x0000000000000000        0x0 build/cooja/mtype560.a(linkaddr.o)
 .note.GNU-stack
                0x0000000000000000        0x0 build/cooja/mtype560.a(tsch.o)
 .note.GNU-stack
                0x0000000000000000        0x0 build/cooja/mtype560.a(uip-sr.o)
 .note.GNU-stack
                0x0000000000000000        0x0 build/cooja/mtype560.a(uip-ds6.o)
 .note.GNU-stack
                0x0000000000000000        0x0 build/cooja/mtype560.a(tcpip.o)
 .note.GNU-stack
                0x0000000000000000        0x0 build/cooja/mtype560.a(uip-ds6-route.o)
 .note.GNU-stack
                0x0000000000000000        0x0 build/cooja/mtype560.a(uip-ds6-nbr.o)
 .note.GNU-stack
                0x0000000000000000        0x0 build/cooja/mtype560.a(uip6.o)
 .note.GNU-stack
                0x0000000000000000        0x0 build/cooja/mtype560.a(uip-nd6.o)
 .note.GNU-stack
                0x0000000000000000        0x0 build/cooja/mtype560.a(simple-udp.o)
 .note.GNU-stack
                0x0000000000000000        0x0 build/cooja/mtype560.a(sicslowpan.o)
 .note.GNU-stack
                0x0000000000000000        0x0 build/cooja/mtype560.a(uiplib.o)
 .note.GNU-stack
                0x0000000000000000        0x0 build/cooja/mtype560.a(rpl.o)
 .note.GNU-stack
                0x0000000000000000        0x0 build/cooja/mtype560.a(rpl-dag-root.o)
 .note.GNU-stack
                0x0000000000000000        0x0 build/cooja/mtype560.a(watchdog.o)
 .note.GNU-stack
                0x0000000000000000        0x0 build/cooja/mtype560.a(int-master.o)
 .note.GNU-stack
                0x0000000000000000        0x0 build/cooja/mtype560.a(cooja16.o)
 .note.GNU-stack
                0x0000000000000000        0x0 build/cooja/mtype560.a(simple-energest)
 .note.GNU-stack
                0x0000000000000000        0x0 build/cooja/mtype560.a(orchestra.o)
 .note.GNU-stack
                0x0000000000000000        0x0 build/cooja/mtype560.a(orchestra-rule-)
 .note.GNU-stack
                0x0000000000000000        0x0 build/cooja/mtype560.a(stimer.o)
 .note.GNU-stack
                0x0000000000000000        0x0 build/cooja/mtype560.a(ringbufindex.o)
 .note.GNU-stack
                0x0000000000000000        0x0 build/cooja/mtype560.a(memb.o)
 .note.GNU-stack
                0x0000000000000000        0x0 build/cooja/mtype560.a(ringbuf.o)
 .note.GNU-stack
                0x0000000000000000        0x0 build/cooja/mtype560.a(nbr-table.o)
 .note.GNU-stack
                0x0000000000000000        0x0 build/cooja/mtype560.a(link-stats.o)
 .note.GNU-stack
                0x0000000000000000        0x0 build/cooja/mtype560.a(mac-sequence.o)
 .note.GNU-stack
                0x0000000000000000        0x0 build/cooja/mtype560.a(mac.o)
 .note.GNU-stack
                0x0000000000000000        0x0 build/cooja/mtype560.a(framer-802154.o)
 .note.GNU-stack
                0x0000000000000000        0x0 build/cooja/mtype560.a(frame802154.o)
 .note.GNU-stack
                0x0000000000000000        0x0 build/cooja/mtype560.a(tsch-queue.o)
 .note.GNU-stack
                0x0000000000000000        0x0 build/cooja/mtype560.a(tsch-timeslot-t)
 .note.GNU-stack
                0x0000000000000000        0x0 build/cooja/mtype560.a(tsch-schedule.o)
 .note.GNU-stack
                0x0000000000000000        0x0 build/cooja/mtype560.a(tsch-slot-opera)
 .note.GNU-stack
                0x0000000000000000        0x0 build/cooja/mtype560.a(tsch-packet.o)
 .note.GNU-stack
                0x0000000000000000        0x0 build/cooja/mtype560.a(tsch-security.o)
 .note.GNU-stack
                0x0000000000000000        0x0 build/cooja/mtype560.a(tsch-rpl.o)
 .note.GNU-stack
                0x0000000000000000        0x0 build/cooja/mtype560.a(tsch-adaptive-t)
 .note.GNU-stack
                0x0000000000000000        0x0 build/cooja/mtype560.a(uipbuf.o)
 .note.GNU-stack
                0x0000000000000000        0x0 build/cooja/mtype560.a(uip-icmp6.o)
 .note.GNU-stack
                0x0000000000000000        0x0 build/cooja/mtype560.a(uip-packetqueue)
 .note.GNU-stack
                0x0000000000000000        0x0 build/cooja/mtype560.a(uip-udp-packet.)
 .note.GNU-stack
                0x0000000000000000        0x0 build/cooja/mtype560.a(rpl-icmp6.o)
 .note.GNU-stack
                0x0000000000000000        0x0 build/cooja/mtype560.a(rpl-neighbor.o)
 .note.GNU-stack
                0x0000000000000000        0x0 build/cooja/mtype560.a(rpl-dag.o)
 .note.GNU-stack
                0x0000000000000000        0x0 build/cooja/mtype560.a(rpl-timers.o)
 .note.GNU-stack
                0x0000000000000000        0x0 build/cooja/mtype560.a(rpl-ext-header.)
 .note.GNU-stack
                0x0000000000000000        0x0 build/cooja/mtype560.a(rpl-nbr-policy.)
 .note.GNU-stack
                0x0000000000000000        0x0 build/cooja/mtype560.a(rpl-mrhof.o)
 .note.GNU-stack
                0x0000000000000000        0x0 build/cooja/mtype560.a(orchestra-rule-)
 .note.GNU-stack
                0x0000000000000000        0x0 build/cooja/mtype560.a(orchestra-rule-)
 .note.GNU-stack
                0x0000000000000000        0x0 build/cooja/mtype560.a(ccm-star.o)
 .note.GNU-stack
                0x0000000000000000        0x0 build/cooja/mtype560.a(aes-128.o)
 .note.GNU-stack
                0x0000000000000000        0x0 build/cooja/mtype560.a(frame802154e-ie)
 .note.GNU-stack
                0x0000000000000000        0x0 /usr/lib/gcc/x86_64-linux-gnu/7/crtendS.o
 .note.GNU-stack
                0x0000000000000000        0x0 /usr/lib/gcc/x86_64-linux-gnu/7/../../../x86_64-linux-gnu/crtn.o

Memory Configuration

Name             Origin             Length             Attributes
*default*        0x0000000000000000 0xffffffffffffffff

Linker script and memory map

LOAD /usr/lib/gcc/x86_64-linux-gnu/7/../../../x86_64-linux-gnu/crti.o
LOAD /usr/lib/gcc/x86_64-linux-gnu/7/crtbeginS.o
LOAD node.o
LOAD build/cooja/mtype560.o
LOAD build/cooja/mtype560.a
LOAD /usr/lib/gcc/x86_64-linux-gnu/7/libgcc.a
LOAD /usr/lib/gcc/x86_64-linux-gnu/7/libgcc_s.so
START GROUP
LOAD /usr/lib/gcc/x86_64-linux-gnu/7/libgcc_s.so.1
LOAD /usr/lib/gcc/x86_64-linux-gnu/7/libgcc.a
END GROUP
LOAD /usr/lib/gcc/x86_64-linux-gnu/7/../../../x86_64-linux-gnu/libc.so
START GROUP
LOAD /lib/x86_64-linux-gnu/libc.so.6
LOAD /usr/lib/x86_64-linux-gnu/libc_nonshared.a
LOAD /lib/x86_64-linux-gnu/ld-linux-x86-64.so.2
END GROUP
LOAD /usr/lib/gcc/x86_64-linux-gnu/7/libgcc.a
LOAD /usr/lib/gcc/x86_64-linux-gnu/7/libgcc_s.so
START GROUP
LOAD /usr/lib/gcc/x86_64-linux-gnu/7/libgcc_s.so.1
LOAD /usr/lib/gcc/x86_64-linux-gnu/7/libgcc.a
END GROUP
LOAD /usr/lib/gcc/x86_64-linux-gnu/7/crtendS.o
LOAD /usr/lib/gcc/x86_64-linux-gnu/7/../../../x86_64-linux-gnu/crtn.o
                0x00000000000001c8                . = (SEGMENT_START ("text-segment", 0x0) + SIZEOF_HEADERS)

.note.gnu.build-id
                0x00000000000001c8       0x24
 *(.note.gnu.build-id)
 .note.gnu.build-id
                0x00000000000001c8       0x24 /usr/lib/gcc/x86_64-linux-gnu/7/../../../x86_64-linux-gnu/crti.o

.hash
 *(.hash)

.gnu.hash       0x00000000000001f0     0x1874
 *(.gnu.hash)
 .gnu.hash      0x00000000000001f0     0x1874 /usr/lib/gcc/x86_64-linux-gnu/7/../../../x86_64-linux-gnu/crti.o

.dynsym         0x0000000000001a68     0x4b18
 *(.dynsym)
 .dynsym        0x0000000000001a68     0x4b18 /usr/lib/gcc/x86_64-linux-gnu/7/../../../x86_64-linux-gnu/crti.o

.dynstr         0x0000000000006580     0x3c79
 *(.dynstr)
 .dynstr        0x0000000000006580     0x3c79 /usr/lib/gcc/x86_64-linux-gnu/7/../../../x86_64-linux-gnu/crti.o

.gnu.version    0x000000000000a1fa      0x642
 *(.gnu.version)
 .gnu.version   0x000000000000a1fa      0x642 /usr/lib/gcc/x86_64-linux-gnu/7/../../../x86_64-linux-gnu/crti.o

.gnu.version_d  0x000000000000a840        0x0
 *(.gnu.version_d)
 .gnu.version_d
                0x000000000000a840        0x0 /usr/lib/gcc/x86_64-linux-gnu/7/../../../x86_64-linux-gnu/crti.o

.gnu.version_r  0x000000000000a840       0x40
 *(.gnu.version_r)
 .gnu.version_r
                0x000000000000a840       0x40 /usr/lib/gcc/x86_64-linux-gnu/7/../../../x86_64-linux-gnu/crti.o

.rela.dyn       0x000000000000a880     0x2580
 *(.rela.init)
 *(.rela.text .rela.text.* .rela.gnu.linkonce.t.*)
 .rela.text     0x000000000000a880        0x0 /usr/lib/gcc/x86_64-linux-gnu/7/../../../x86_64-linux-gnu/crti.o
 *(.rela.fini)
 *(.rela.rodata .rela.rodata.* .rela.gnu.linkonce.r.*)
 *(.rela.data .rela.data.* .rela.gnu.linkonce.d.*)
 .rela.data.rel.local
                0x000000000000a880      0x8e8 /usr/lib/gcc/x86_64-linux-gnu/7/../../../x86_64-linux-gnu/crti.o
 .rela.data.rel.ro
                0x000000000000b168      0x288 /usr/lib/gcc/x86_64-linux-gnu/7/../../../x86_64-linux-gnu/crti.o
 .rela.data.rel
                0x000000000000b3f0      0x3f0 /usr/lib/gcc/x86_64-linux-gnu/7/../../../x86_64-linux-gnu/crti.o
 .rela.data.rel.ro.local
                0x000000000000b7e0      0x600 /usr/lib/gcc/x86_64-linux-gnu/7/../../../x86_64-linux-gnu/crti.o
 *(.rela.tdata .rela.tdata.* .rela.gnu.linkonce.td.*)
 *(.rela.tbss .rela.tbss.* .rela.gnu.linkonce.tb.*)
 *(.rela.ctors)
 *(.rela.dtors)
 *(.rela.got)
 .rela.got      0x000000000000bde0      0xff0 /usr/lib/gcc/x86_64-linux-gnu/7/../../../x86_64-linux-gnu/crti.o
 *(.rela.bss .rela.bss.* .rela.gnu.linkonce.b.*)
 *(.rela.ldata .rela.ldata.* .rela.gnu.linkonce.l.*)
 *(.rela.lbss .rela.lbss.* .rela.gnu.linkonce.lb.*)
 *(.rela.lrodata .rela.lrodata.* .rela.gnu.linkonce.lr.*)
 *(.rela.ifunc)
 .rela.ifunc    0x000000000000cdd0        0x0 /usr/lib/gcc/x86_64-linux-gnu/7/../../../x86_64-linux-gnu/crti.o
 .rela.fini_array
                0x000000000000cdd0       0x18 /usr/lib/gcc/x86_64-linux-gnu/7/../../../x86_64-linux-gnu/crti.o
 .rela.init_array
                0x000000000000cde8       0x18 /usr/lib/gcc/x86_64-linux-gnu/7/../../../x86_64-linux-gnu/crti.o

.rela.plt       0x000000000000ce00     0x28c8
 *(.rela.plt)
 .rela.plt      0x000000000000ce00     0x28c8 /usr/lib/gcc/x86_64-linux-gnu/7/../../../x86_64-linux-gnu/crti.o
 *(.rela.iplt)

.init           0x000000000000f6c8       0x17
 *(SORT_NONE(.init))
 .init          0x000000000000f6c8       0x12 /usr/lib/gcc/x86_64-linux-gnu/7/../../../x86_64-linux-gnu/crti.o
                0x000000000000f6c8                _init
 .init          0x000000000000f6da        0x5 /usr/lib/gcc/x86_64-linux-gnu/7/../../../x86_64-linux-gnu/crtn.o

.plt            0x000000000000f6e0     0x1b40
 *(.plt)
 .plt           0x000000000000f6e0     0x1b40 /usr/lib/gcc/x86_64-linux-gnu/7/../../../x86_64-linux-gnu/crti.o
 *(.iplt)

.plt.got        0x0000000000011220       0x18
 *(.plt.got)
 .plt.got       0x0000000000011220       0x18 /usr/lib/gcc/x86_64-linux-gnu/7/../../../x86_64-linux-gnu/crti.o

.plt.sec
 *(.plt.sec)

.text           0x0000000000011240    0x25e97
 *(.text.unlikely .text.*_unlikely .text.unlikely.*)
 *(.text.exit .text.exit.*)
 *(.text.startup .text.startup.*)
 *(.text.hot .text.hot.*)
 *(.text .stub .text.* .gnu.linkonce.t.*)
 .text          0x0000000000011240        0x0 /usr/lib/gcc/x86_64-linux-gnu/7/../../../x86_64-linux-gnu/crti.o
 .text          0x0000000000011240       0xda /usr/lib/gcc/x86_64-linux-gnu/7/crtbeginS.o
 .text          0x000000000001131a      0x4a1 node.o
 .text          0x00000000000117bb      0x354 build/cooja/mtype560.o
                0x0000000000011867                platform_init_stage_one
                0x0000000000011878                platform_init_stage_two
                0x0000000000011889                platform_init_stage_three
                0x000000000001189a                platform_main_loop
                0x0000000000011930                Java_org_contikios_cooja_corecomm_Lib1_init
                0x0000000000011973                Java_org_contikios_cooja_corecomm_Lib1_getMemory
                0x00000000000119cb                Java_org_contikios_cooja_corecomm_Lib1_setMemory
                0x0000000000011a58                Java_org_contikios_cooja_corecomm_Lib1_tick
                0x0000000000011ae1                Java_org_contikios_cooja_corecomm_Lib1_setReferenceAddress
 .text          0x0000000000011b0f       0x89 build/cooja/mtype560.a(simEnvChange.o)
                0x0000000000011b0f                doActionsBeforeTick
                0x0000000000011b53                doActionsAfterTick
 .text          0x0000000000011b98       0x9f build/cooja/mtype560.a(cooja_mt.o)
                0x0000000000011b98                cooja_mt_start
                0x0000000000011bd4                cooja_mt_exec
                0x0000000000011c13                cooja_mt_yield
 .text          0x0000000000011c37       0xfe build/cooja/mtype560.a(cooja_mtarch.o)
                0x0000000000011c37                cooja_mtarch_start
                0x0000000000011cd6                cooja_sw
                0x0000000000011cff                cooja_mtarch_exec
                0x0000000000011d29                cooja_mtarch_yield
 .text          0x0000000000011d35       0xb4 build/cooja/mtype560.a(rtimer-arch.o)
                0x0000000000011d35                rtimer_arch_init
                0x0000000000011d57                rtimer_arch_schedule
                0x0000000000011d7d                rtimer_arch_next
                0x0000000000011d8d                rtimer_arch_pending
                0x0000000000011d9c                rtimer_arch_check
                0x0000000000011dd9                rtimer_arch_now
 .text          0x0000000000011de9       0xba build/cooja/mtype560.a(beep.o)
                0x0000000000011de9                beep_alarm
                0x0000000000011e00                beep_beep
                0x0000000000011e14                beep
                0x0000000000011e25                beep_down
                0x0000000000011e39                beep_on
                0x0000000000011e4a                beep_off
                0x0000000000011e5b                beep_spinup
                0x0000000000011e6c                beep_quick
                0x0000000000011e80                beep_long
 .text          0x0000000000011ea3       0x69 build/cooja/mtype560.a(leds-arch.o)
                0x0000000000011eba                leds_arch_init
 .text          0x0000000000011f0c       0x39 build/cooja/mtype560.a(moteid.o)
 .text          0x0000000000011f45       0xe5 build/cooja/mtype560.a(pir-sensor.o)
 .text          0x000000000001202a      0x175 build/cooja/mtype560.a(rs232.o)
                0x000000000001202a                rs232_init
                0x0000000000012031                rs232_set_speed
                0x000000000001203d                rs232_set_input
                0x0000000000012053                rs232_send
                0x000000000001207a                rs232_print
                0x00000000000120a1                slip_arch_writeb
 .text          0x000000000001219f       0xe5 build/cooja/mtype560.a(vib-sensor.o)
 .text          0x0000000000012284       0x57 build/cooja/mtype560.a(clock.o)
                0x0000000000012284                clock_init
                0x000000000001228b                clock_time
                0x000000000001229b                clock_seconds
                0x00000000000122c3                clock_delay
 .text          0x00000000000122db      0x30e build/cooja/mtype560.a(cooja-log.o)
                0x00000000000122db                simlog_char
                0x0000000000012334                simlog
                0x00000000000123d3                log_message
                0x000000000001240c                log_set_putchar_with_slip
                0x000000000001241f                log_putchar
                0x000000000001249f                log_puts
                0x00000000000124c8                log_printf
 .text          0x00000000000125e9      0x373 build/cooja/mtype560.a(cfs-cooja.o)
                0x00000000000125e9                cfs_open
                0x0000000000012662                cfs_close
                0x0000000000012673                cfs_read
                0x0000000000012737                cfs_write
                0x0000000000012846                cfs_seek
                0x00000000000128f1                cfs_remove
                0x000000000001291d                cfs_opendir
                0x0000000000012930                cfs_readdir
                0x0000000000012943                cfs_closedir
 .text          0x000000000001295c      0x8a7 build/cooja/mtype560.a(cooja-radio.o)
                0x0000000000012af8                radio_set_channel
                0x0000000000012b0e                radio_set_txpower
                0x0000000000012b27                radio_signal_strength_last
                0x0000000000012b36                radio_signal_strength_current
                0x0000000000012b45                radio_LQI
 .text          0x0000000000013203      0x125 build/cooja/mtype560.a(eeprom.o)
                0x0000000000013203                eeprom_init
                0x000000000001320a                eeprom_read
                0x0000000000013292                eeprom_write
 .text          0x0000000000013328       0x27 build/cooja/mtype560.a(random.o)
                0x0000000000013328                random_init
                0x0000000000013344                random_rand
 .text          0x000000000001334f      0x33f build/cooja/mtype560.a(sensors.o)
                0x0000000000013394                sensors_first
                0x00000000000133a4                sensors_next
                0x00000000000133cf                sensors_changed
                0x0000000000013418                sensors_find
 .text          0x000000000001368e      0x386 build/cooja/mtype560.a(leds.o)
                0x000000000001368e                leds_init
                0x00000000000136d5                leds_single_on
                0x000000000001373e                leds_single_off
                0x00000000000137a7                leds_single_toggle
                0x00000000000137db                leds_on
                0x0000000000013867                leds_off
                0x00000000000138f3                leds_toggle
                0x000000000001394a                leds_set
                0x000000000001396f                leds_get
 .text          0x0000000000013a14      0x3ce build/cooja/mtype560.a(gpio-hal-arch.o)
                0x0000000000013a14                gpio_hal_arch_register_pin_callback
                0x0000000000013ab4                gpio_hal_arch_init
                0x0000000000013afd                gpio_hal_arch_no_port_interrupt_enable
                0x0000000000013b46                gpio_hal_arch_no_port_interrupt_disable
                0x0000000000013b8f                gpio_hal_arch_no_port_pin_cfg_set
                0x0000000000013bc1                gpio_hal_arch_no_port_pin_cfg_get
                0x0000000000013bf1                gpio_hal_arch_no_port_pin_set_input
                0x0000000000013c00                gpio_hal_arch_no_port_pin_set_output
                0x0000000000013c0f                gpio_hal_arch_no_port_set_pin
                0x0000000000013c2f                gpio_hal_arch_no_port_clear_pin
                0x0000000000013c4f                gpio_hal_arch_no_port_read_pin
                0x0000000000013c79                gpio_hal_arch_no_port_write_pin
                0x0000000000013c9f                gpio_hal_arch_no_port_set_pins
                0x0000000000013ce9                gpio_hal_arch_no_port_clear_pins
                0x0000000000013d33                gpio_hal_arch_no_port_read_pins
                0x0000000000013d7e                gpio_hal_arch_no_port_write_pins
 .text          0x0000000000013de2       0x94 build/cooja/mtype560.a(buttons.o)
 .text          0x0000000000013e76      0x22b build/cooja/mtype560.a(deployment.o)
                0x0000000000013e76                deployment_init
                0x0000000000013ed3                deployment_node_count
                0x0000000000013edf                deployment_id_from_lladdr
                0x0000000000013f40                deployment_lladdr_from_id
                0x0000000000013fa9                deployment_id_from_iid
                0x0000000000013ff9                deployment_iid_from_id
                0x0000000000014056                deployment_id_from_index
 .text          0x00000000000140a1      0x3ad build/cooja/mtype560.a(contiki-main.o)
                0x00000000000140a1                main
 .text          0x000000000001444e       0xb3 build/cooja/mtype560.a(autostart.o)
                0x000000000001444e                autostart_start
                0x00000000000144aa                autostart_exit
 .text          0x0000000000014501      0x4dd build/cooja/mtype560.a(log.o)
                0x0000000000014501                log_6addr
                0x0000000000014560                log_6addr_compact_snprint
                0x0000000000014625                log_6addr_compact
                0x0000000000014684                log_lladdr
                0x0000000000014701                log_lladdr_compact
                0x0000000000014766                log_bytes
                0x00000000000147be                log_set_level
                0x00000000000148c4                log_get_level
                0x0000000000014977                log_level_to_str
 .text          0x00000000000149de      0x189 build/cooja/mtype560.a(energest.o)
                0x0000000000014a39                energest_init
                0x0000000000014aa8                energest_flush
                0x0000000000014b38                energest_get_total_time
 .text          0x0000000000014b67      0x540 build/cooja/mtype560.a(etimer.o)
                0x0000000000014e07                etimer_request_poll
                0x0000000000014eb1                etimer_set
                0x0000000000014ee3                etimer_reset_with_new_interval
                0x0000000000014f1a                etimer_reset
                0x0000000000014f41                etimer_restart
                0x0000000000014f68                etimer_adjust
                0x0000000000014f95                etimer_expired
                0x0000000000014fb0                etimer_expiration_time
                0x0000000000014fcc                etimer_start_time
                0x0000000000014fdd                etimer_pending
                0x0000000000014ff3                etimer_next_expiration_time
                0x0000000000015010                etimer_stop
 .text          0x00000000000150a7        0xc build/cooja/mtype560.a(node-id.o)
                0x00000000000150a7                node_id_init
 .text          0x00000000000150b3      0x421 build/cooja/mtype560.a(ctimer.o)
                0x0000000000015211                ctimer_init
                0x0000000000015242                ctimer_set
                0x0000000000015282                ctimer_set_with_process
                0x0000000000015338                ctimer_reset
                0x00000000000153a5                ctimer_restart
                0x0000000000015412                ctimer_stop
                0x000000000001546c                ctimer_expired
 .text          0x00000000000154d4      0x641 build/cooja/mtype560.a(process.o)
                0x00000000000154d4                process_alloc_event
                0x00000000000154ea                process_start
                0x000000000001574f                process_exit
                0x0000000000015777                process_init
                0x0000000000015967                process_run
                0x0000000000015998                process_nevents
                0x00000000000159b4                process_post
                0x0000000000015a78                process_post_synch
                0x0000000000015ac2                process_poll
                0x0000000000015afb                process_is_running
 .text          0x0000000000015b15       0xf6 build/cooja/mtype560.a(rtimer.o)
                0x0000000000015b15                rtimer_init
                0x0000000000015b21                rtimer_set
                0x0000000000015b9e                rtimer_run_next
 .text          0x0000000000015c0b       0xf3 build/cooja/mtype560.a(timer.o)
                0x0000000000015c0b                timer_set
                0x0000000000015c39                timer_reset
                0x0000000000015c71                timer_restart
                0x0000000000015c8f                timer_expired
                0x0000000000015ccc                timer_remaining
 .text          0x0000000000015cfe      0x367 build/cooja/mtype560.a(list.o)
                0x0000000000015cfe                list_init
                0x0000000000015d14                list_head
                0x0000000000015d25                list_copy
                0x0000000000015d42                list_tail
                0x0000000000015d87                list_add
                0x0000000000015de7                list_push
                0x0000000000015e26                list_chop
                0x0000000000015eaf                list_pop
                0x0000000000015ee5                list_remove
                0x0000000000015f6d                list_length
                0x0000000000015fa4                list_insert
                0x0000000000016003                list_item_next
                0x0000000000016022                list_contains
 .text          0x0000000000016065      0x54c build/cooja/mtype560.a(button-hal.o)
                0x000000000001621a                button_hal_get_by_id
                0x0000000000016264                button_hal_get_by_index
                0x0000000000016297                button_hal_get_state
                0x00000000000162f6                button_hal_init
 .text          0x00000000000165b1      0x217 build/cooja/mtype560.a(serial-line.o)
                0x00000000000165b1                serial_line_input_byte
                0x0000000000016795                serial_line_init
 .text          0x00000000000167c8      0x164 build/cooja/mtype560.a(gpio-hal.o)
                0x00000000000167c8                gpio_hal_register_handler
                0x00000000000167ed                gpio_hal_event_handler
                0x0000000000016853                gpio_hal_init
                0x000000000001686e                gpio_hal_arch_port_toggle_pin
                0x00000000000168a1                gpio_hal_arch_port_toggle_pins
                0x00000000000168ce                gpio_hal_arch_no_port_toggle_pin
                0x0000000000016904                gpio_hal_arch_no_port_toggle_pins
 .text          0x000000000001692c      0x330 build/cooja/mtype560.a(queuebuf.o)
                0x000000000001693d                queuebuf_init
                0x000000000001695c                queuebuf_numfree
                0x000000000001696e                queuebuf_new_from_packetbuf
                0x0000000000016a17                queuebuf_update_attr_from_packetbuf
                0x0000000000016a56                queuebuf_update_from_packetbuf
                0x0000000000016aae                queuebuf_free
                0x0000000000016afd                queuebuf_to_packetbuf
                0x0000000000016b6f                queuebuf_dataptr
                0x0000000000016baf                queuebuf_datalen
                0x0000000000016bdb                queuebuf_addr
                0x0000000000016c1e                queuebuf_attr
                0x0000000000016c55                queuebuf_debug_print
 .text          0x0000000000016c5c      0x458 build/cooja/mtype560.a(packetbuf.o)
                0x0000000000016c5c                packetbuf_clear
                0x0000000000016c86                packetbuf_copyfrom
                0x0000000000016cdc                packetbuf_copyto
                0x0000000000016d7f                packetbuf_hdralloc
                0x0000000000016e0a                packetbuf_hdrreduce
                0x0000000000016e56                packetbuf_set_datalen
                0x0000000000016e6e                packetbuf_dataptr
                0x0000000000016e90                packetbuf_hdrptr
                0x0000000000016e9d                packetbuf_datalen
                0x0000000000016eaa                packetbuf_hdrlen
                0x0000000000016ec2                packetbuf_totlen
                0x0000000000016ee1                packetbuf_remaininglen
                0x0000000000016ef5                packetbuf_attr_clear
                0x0000000000016f55                packetbuf_attr_copyto
                0x0000000000016f9c                packetbuf_attr_copyfrom
                0x0000000000016fe3                packetbuf_set_attr
                0x000000000001700f                packetbuf_attr
                0x000000000001702c                packetbuf_set_addr
                0x000000000001706e                packetbuf_addr
                0x0000000000017094                packetbuf_holds_broadcast
 .text          0x00000000000170b4      0x11b build/cooja/mtype560.a(netstack.o)
                0x00000000000170b4                netstack_process_ip_callback
                0x0000000000017151                netstack_ip_packet_processor_add
                0x000000000001717d                uip_ds6_ip_packet_processor_rm
                0x00000000000171a2                netstack_init
 .text          0x00000000000171cf       0x74 build/cooja/mtype560.a(linkaddr.o)
                0x00000000000171cf                linkaddr_copy
                0x00000000000171ec                linkaddr_cmp
                0x000000000001721e                linkaddr_set_node_addr
 .text          0x0000000000017243     0x29c5 build/cooja/mtype560.a(tsch.o)
                0x0000000000017243                tsch_set_coordinator
                0x0000000000017282                tsch_set_pan_secured
                0x0000000000017299                tsch_set_join_priority
                0x00000000000172b2                tsch_set_ka_timeout
                0x00000000000172d4                tsch_set_eb_period
                0x0000000000017835                tsch_schedule_keepalive
                0x0000000000018097                tsch_disassociate
                0x0000000000018827                tsch_scan
 .text          0x0000000000019c08      0x9a2 build/cooja/mtype560.a(uip-sr.o)
                0x0000000000019c08                uip_sr_num_nodes
                0x0000000000019cab                uip_sr_get_node
                0x0000000000019d0f                uip_sr_is_addr_reachable
                0x0000000000019dd3                uip_sr_expire_parent
                0x0000000000019e32                uip_sr_update_node
                0x000000000001a10f                uip_sr_init
                0x000000000001a13b                uip_sr_node_head
                0x000000000001a150                uip_sr_node_next
                0x000000000001a16a                uip_sr_periodic
                0x000000000001a330                uip_sr_free_all
                0x000000000001a3a7                uip_sr_link_snprint
 .text          0x000000000001a5aa     0x10dd build/cooja/mtype560.a(uip-ds6.o)
                0x000000000001a5aa                uip_ds6_default_prefix
                0x000000000001a5b7                uip_ds6_set_default_prefix
                0x000000000001a5db                uip_ds6_init
                0x000000000001aa3e                uip_ds6_periodic
                0x000000000001aadc                uip_ds6_list_loop
                0x000000000001abc1                uip_ds6_prefix_add
                0x000000000001ad63                uip_ds6_prefix_rm
                0x000000000001ad7d                uip_ds6_prefix_lookup
                0x000000000001add0                uip_ds6_is_addr_onlink
                0x000000000001ae60                uip_ds6_addr_add
                0x000000000001afa1                uip_ds6_addr_rm
                0x000000000001b055                uip_ds6_addr_lookup
                0x000000000001b0a3                uip_ds6_get_link_local
                0x000000000001b144                uip_ds6_get_global
                0x000000000001b1e5                uip_ds6_maddr_add
                0x000000000001b25a                uip_ds6_maddr_rm
                0x000000000001b274                uip_ds6_maddr_lookup
                0x000000000001b2c5                uip_ds6_aaddr_add
                0x000000000001b33a                uip_ds6_aaddr_rm
                0x000000000001b354                uip_ds6_aaddr_lookup
                0x000000000001b3a5                uip_ds6_select_src
                0x000000000001b52b                uip_ds6_set_addr_iid
                0x000000000001b560                uip_ds6_set_lladdr_from_iid
                0x000000000001b593                get_match_length
                0x000000000001b63d                uip_ds6_compute_reachable_time
 .text          0x000000000001b687      0x830 build/cooja/mtype560.a(tcpip.o)
                0x000000000001b6b3                tcpip_output
                0x000000000001b73f                udp_attach
                0x000000000001b769                udp_new
                0x000000000001b7c0                udp_broadcast_new
                0x000000000001b95d                tcpip_input
                0x000000000001bb20                tcpip_ipv6_output
                0x000000000001bd76                tcpip_poll_udp
                0x000000000001bda0                tcpip_uipcall
 .text          0x000000000001beb7      0x6dd build/cooja/mtype560.a(uip-ds6-route.o)
                0x000000000001bf0c                uip_ds6_route_init
                0x000000000001bf2e                uip_ds6_route_nexthop
                0x000000000001bf3d                uip_ds6_route_head
                0x000000000001bf48                uip_ds6_route_next
                0x000000000001bf57                uip_ds6_route_is_nexthop
                0x000000000001bf66                uip_ds6_route_num_routes
                0x000000000001bf71                uip_ds6_route_lookup
                0x000000000001bf80                uip_ds6_route_add
                0x000000000001bf98                uip_ds6_route_rm
                0x000000000001bfa3                uip_ds6_route_rm_by_nexthop
                0x000000000001bfae                uip_ds6_defrt_head
                0x000000000001bfc3                uip_ds6_defrt_add
                0x000000000001c1ae                uip_ds6_defrt_rm
                0x000000000001c262                uip_ds6_defrt_lookup
                0x000000000001c2d5                uip_ds6_defrt_choose
                0x000000000001c4d7                uip_ds6_defrt_periodic
 .text          0x000000000001c594      0x6a9 build/cooja/mtype560.a(uip-ds6-nbr.o)
                0x000000000001c594                uip_ds6_neighbors_init
                0x000000000001c5b9                uip_ds6_nbr_add
                0x000000000001c7cd                uip_ds6_nbr_rm
                0x000000000001c826                uip_ds6_nbr_update_ll
                0x000000000001ca78                uip_ds6_nbr_get_ipaddr
                0x000000000001ca94                uip_ds6_nbr_get_ll
                0x000000000001cab8                uip_ds6_nbr_num
                0x000000000001cb06                uip_ds6_nbr_head
                0x000000000001cb1b                uip_ds6_nbr_next
                0x000000000001cb3f                uip_ds6_nbr_lookup
                0x000000000001cba4                uip_ds6_nbr_ll_lookup
                0x000000000001cbc8                uip_ds6_nbr_ipaddr_from_lladdr
                0x000000000001cbf8                uip_ds6_nbr_lladdr_from_ipaddr
                0x000000000001cc30                uip_ds6_link_callback
 .text          0x000000000001cc3d     0x1ee1 build/cooja/mtype560.a(uip6.o)
                0x000000000001ccfd                uip_chksum
                0x000000000001cddf                uip_icmp6chksum
                0x000000000001cdef                uip_udpchksum
                0x000000000001cdff                uip_init
                0x000000000001ce61                uip_remove_ext_hdr
                0x000000000001cf9b                uip_udp_new
                0x000000000001d3a9                uip_process
                0x000000000001e9ad                uip_htons
                0x000000000001e9cc                uip_htonl
                0x000000000001ea10                uip_send
 .text          0x000000000001eb1e      0xbea build/cooja/mtype560.a(uip-nd6.o)
                0x000000000001f6f5                uip_nd6_init
 .text          0x000000000001f708      0x46d build/cooja/mtype560.a(simple-udp.o)
                0x000000000001f735                simple_udp_send
                0x000000000001f7a3                simple_udp_sendto
                0x000000000001f811                simple_udp_sendto_port
                0x000000000001f87d                simple_udp_register
 .text          0x000000000001fb75     0x33af build/cooja/mtype560.a(sicslowpan.o)
                0x000000000002033e                netstack_sniffer_add
                0x0000000000020354                netstack_sniffer_remove
                0x0000000000022ef5                sicslowpan_init
                0x0000000000022f18                sicslowpan_get_last_rssi
 .text          0x0000000000022f24      0x590 build/cooja/mtype560.a(uiplib.o)
                0x0000000000022f24                uiplib_ip6addrconv
                0x0000000000023106                uiplib_ip4addrconv
                0x00000000000231d4                uiplib_ipaddr_print
                0x0000000000023233                uiplib_ipaddr_snprint
 .text          0x00000000000234b4      0x831 build/cooja/mtype560.a(rpl.o)
                0x00000000000234b4                rpl_lollipop_greater_than
                0x0000000000023514                rpl_get_global_address
                0x00000000000236b0                rpl_link_callback
                0x00000000000237ac                rpl_has_joined
                0x00000000000237db                rpl_is_reachable
                0x0000000000023879                rpl_reset_prefix
                0x0000000000023967                rpl_set_prefix_from_addr
                0x0000000000023b2e                rpl_set_prefix
                0x0000000000023cc2                rpl_set_leaf_only
                0x0000000000023cd8                rpl_get_leaf_only
 .text          0x0000000000023ce5      0x5dd build/cooja/mtype560.a(rpl-dag-root.o)
                0x0000000000023ce5                rpl_dag_root_print_links
                0x000000000002406e                rpl_dag_root_set_prefix
                0x00000000000240a6                rpl_dag_root_start
                0x0000000000024286                rpl_dag_root_is_root
 .text          0x00000000000242c2       0x35 build/cooja/mtype560.a(watchdog.o)
                0x00000000000242c2                watchdog_init
                0x00000000000242c9                watchdog_start
                0x00000000000242d0                watchdog_periodic
                0x00000000000242e9                watchdog_stop
                0x00000000000242f0                watchdog_reboot
 .text          0x00000000000242f7       0x51 build/cooja/mtype560.a(int-master.o)
                0x00000000000242f7                int_master_enable
                0x0000000000024308                int_master_read_and_disable
                0x0000000000024324                int_master_status_set
                0x0000000000024337                int_master_is_enabled
 .text          0x0000000000024348        0x0 build/cooja/mtype560.a(cooja16.o)
 .text          0x0000000000024348      0x58c build/cooja/mtype560.a(simple-energest)
                0x0000000000024853                simple_energest_init
 .text          0x00000000000248d4      0x3dd build/cooja/mtype560.a(orchestra.o)
                0x0000000000024966                orchestra_callback_child_added
                0x00000000000249c2                orchestra_callback_child_removed
                0x0000000000024a1e                orchestra_callback_packet_ready
                0x0000000000024b01                orchestra_callback_new_time_source
                0x0000000000024b7f                orchestra_init
 .text          0x0000000000024cb1      0x271 build/cooja/mtype560.a(orchestra-rule-)
 .text          0x0000000000024f22      0x11a build/cooja/mtype560.a(stimer.o)
                0x0000000000024f22                stimer_set
                0x0000000000024f50                stimer_reset
                0x0000000000024f88                stimer_restart
                0x0000000000024fa6                stimer_expired
                0x0000000000024fe7                stimer_remaining
                0x0000000000025019                stimer_elapsed
 .text          0x000000000002503c      0x236 build/cooja/mtype560.a(ringbufindex.o)
                0x000000000002503c                ringbufindex_init
                0x0000000000025069                ringbufindex_put
                0x00000000000250d0                ringbufindex_peek_put
                0x000000000002511e                ringbufindex_get
                0x0000000000025187                ringbufindex_peek_get
                0x00000000000251cb                ringbufindex_size
                0x00000000000251e2                ringbufindex_elements
                0x0000000000025210                ringbufindex_full
                0x0000000000025250                ringbufindex_empty
 .text          0x0000000000025272      0x206 build/cooja/mtype560.a(memb.o)
                0x0000000000025272                memb_init
                0x00000000000252d1                memb_alloc
                0x0000000000025347                memb_free
                0x00000000000253d6                memb_inmemb
                0x0000000000025429                memb_numfree
 .text          0x0000000000025478      0x189 build/cooja/mtype560.a(ringbuf.o)
                0x0000000000025478                ringbuf_init
                0x00000000000254b5                ringbuf_put
                0x0000000000025540                ringbuf_get
                0x00000000000255ba                ringbuf_size
                0x00000000000255d2                ringbuf_elements
 .text          0x0000000000025601      0x9ac build/cooja/mtype560.a(nbr-table.o)
                0x0000000000025ba9                nbr_table_register
                0x0000000000025c37                nbr_table_is_registered
                0x0000000000025c8a                nbr_table_head
                0x0000000000025cf1                nbr_table_next
                0x0000000000025d67                nbr_table_add_lladdr
                0x0000000000025e6a                nbr_table_get_from_lladdr
                0x0000000000025ec2                nbr_table_remove
                0x0000000000025f12                nbr_table_lock
                0x0000000000025f40                nbr_table_unlock
                0x0000000000025f6e                nbr_table_get_lladdr
 .text          0x0000000000025fad      0x410 build/cooja/mtype560.a(link-stats.o)
                0x0000000000025fad                link_stats_from_lladdr
                0x0000000000025fd1                link_stats_get_lladdr
                0x0000000000025ff5                link_stats_is_fresh
                0x000000000002603f                guess_etx_from_rssi
                0x00000000000260c0                link_stats_packet_sent
                0x00000000000261fe                link_stats_input_callback
                0x000000000002632b                link_stats_reset
                0x0000000000026382                link_stats_init
 .text          0x00000000000263bd      0x1da build/cooja/mtype560.a(mac-sequence.o)
                0x00000000000263bd                mac_sequence_is_duplicate
                0x000000000002649e                mac_sequence_register_seqno
 .text          0x0000000000026597       0x33 build/cooja/mtype560.a(mac.o)
                0x0000000000026597                mac_call_sent_callback
 .text          0x00000000000265ca      0x442 build/cooja/mtype560.a(framer-802154.o)
                0x0000000000026761                framer_802154_setup_params
 .text          0x0000000000026a0c      0xc84 build/cooja/mtype560.a(frame802154.o)
                0x0000000000026a3a                frame802154_get_pan_id
                0x0000000000026a47                frame802154_set_pan_id
                0x0000000000026a5f                frame802154_has_panid
                0x0000000000026c3a                frame802154_check_dest_panid
                0x0000000000026cd5                frame802154_is_broadcast_addr
                0x0000000000026d28                frame802154_extract_linkaddr
                0x0000000000026fbe                frame802154_hdrlen
                0x0000000000027039                frame802154_create_fcf
                0x0000000000027107                frame802154_create
                0x00000000000272ad                frame802154_parse_fcf
                0x00000000000273a0                frame802154_parse
 .text          0x0000000000027690      0xcd6 build/cooja/mtype560.a(tsch-queue.o)
                0x0000000000027690                tsch_queue_add_nbr
                0x000000000002779a                tsch_queue_get_nbr
                0x00000000000277ce                tsch_queue_get_time_source
                0x000000000002782e                tsch_queue_get_nbr_address
                0x0000000000027852                tsch_queue_update_time_source
                0x0000000000027ae1                tsch_queue_add_packet
                0x0000000000027c99                tsch_queue_global_packet_count
                0x0000000000027cb4                tsch_queue_nbr_packet_count
                0x0000000000027ce2                tsch_queue_remove_packet_from_queue
                0x0000000000027d3b                tsch_queue_free_packet
                0x0000000000027d73                tsch_queue_packet_sent
                0x0000000000027e3d                tsch_queue_reset
                0x0000000000027ea7                tsch_queue_free_unused_neighbors
                0x0000000000027f38                tsch_queue_is_empty
                0x0000000000027f78                tsch_queue_get_packet_for_nbr
                0x00000000000280a8                tsch_queue_get_packet_for_dest_addr
                0x00000000000280e8                tsch_queue_get_unicast_packet_for_any
                0x0000000000028197                tsch_queue_backoff_expired
                0x00000000000281b1                tsch_queue_backoff_reset
                0x00000000000281cc                tsch_queue_backoff_inc
                0x000000000002823e                tsch_queue_update_all_backoff_windows
                0x0000000000028307                tsch_queue_init
 .text          0x0000000000028366        0x0 build/cooja/mtype560.a(tsch-timeslot-t)
 .text          0x0000000000028366     0x1190 build/cooja/mtype560.a(tsch-schedule.o)
                0x0000000000028366                tsch_schedule_add_slotframe
                0x00000000000284ad                tsch_schedule_remove_all_slotframes
                0x00000000000284ef                tsch_schedule_remove_slotframe
                0x00000000000285d5                tsch_schedule_get_slotframe_by_handle
                0x0000000000028633                tsch_schedule_get_link_by_handle
                0x0000000000028804                tsch_schedule_add_link
                0x0000000000028b45                tsch_schedule_remove_link
                0x0000000000028da2                tsch_schedule_remove_link_by_timeslot
                0x0000000000028e47                tsch_schedule_get_link_by_timeslot
                0x0000000000028fa3                tsch_schedule_get_next_active_link
                0x0000000000029259                tsch_schedule_init
                0x00000000000292a0                tsch_schedule_create_minimal
                0x00000000000292f9                tsch_schedule_slotframe_head
                0x000000000002930e                tsch_schedule_slotframe_next
                0x0000000000029328                tsch_schedule_print
 .text          0x00000000000294f6     0x1bfd build/cooja/mtype560.a(tsch-slot-opera)
                0x0000000000029523                tsch_is_locked
                0x000000000002952f                tsch_get_lock
                0x00000000000295b6                tsch_release_lock
                0x0000000000029936                tsch_get_network_uptime_ticks
                0x000000000002af56                tsch_slot_operation_start
                0x000000000002b07c                tsch_slot_operation_sync
 .text          0x000000000002b0f3      0xaaa build/cooja/mtype560.a(tsch-packet.o)
                0x000000000002b0f3                tsch_packet_eackbuf_set_attr
                0x000000000002b11e                tsch_packet_eackbuf_attr
                0x000000000002b13e                tsch_packet_create_eack
                0x000000000002b332                tsch_packet_parse_eack
                0x000000000002b4e9                tsch_packet_create_eb
                0x000000000002b7e7                tsch_packet_update_eb
                0x000000000002b86a                tsch_packet_parse_eb
                0x000000000002bb60                tsch_packet_set_frame_pending
                0x000000000002bb80                tsch_packet_get_frame_pending
 .text          0x000000000002bb9d      0x718 build/cooja/mtype560.a(tsch-security.o)
                0x000000000002bcee                tsch_security_mic_len
                0x000000000002bd2b                tsch_security_secure_frame
                0x000000000002bff8                tsch_security_parse_frame
                0x000000000002c2a9                tsch_security_set_packetbuf_attr
 .text          0x000000000002c2b5      0x157 build/cooja/mtype560.a(tsch-rpl.o)
                0x000000000002c2b5                tsch_rpl_callback_ka_sent
                0x000000000002c2f4                tsch_rpl_callback_joining_network
                0x000000000002c2fb                tsch_rpl_callback_leaving_network
                0x000000000002c31b                tsch_rpl_callback_new_dio_interval
                0x000000000002c3bc                tsch_rpl_callback_parent_switch
                0x000000000002c3f9                tsch_rpl_check_dodag_joined
 .text          0x000000000002c40c      0x398 build/cooja/mtype560.a(tsch-adaptive-t)
                0x000000000002c40c                tsch_adaptive_timesync_get_drift_ppm
                0x000000000002c55b                tsch_timesync_update
                0x000000000002c700                tsch_timesync_adaptive_compensate
                0x000000000002c76a                tsch_adaptive_timesync_reset
 .text          0x000000000002c7a4      0x55f build/cooja/mtype560.a(uipbuf.o)
                0x000000000002c7a4                uipbuf_clear
                0x000000000002c7d2                uipbuf_add_ext_hdr
                0x000000000002c866                uipbuf_set_len
                0x000000000002c894                uipbuf_set_len_field
                0x000000000002c8c3                uipbuf_get_len_field
                0x000000000002c8ea                uipbuf_get_next_header
                0x000000000002ca3d                uipbuf_get_last_header
                0x000000000002cad2                uipbuf_search_header
                0x000000000002cb9d                uipbuf_get_attr
                0x000000000002cbca                uipbuf_set_attr
                0x000000000002cc06                uipbuf_set_default_attr
                0x000000000002cc42                uipbuf_clear_attr
                0x000000000002cc63                uipbuf_set_attr_flag
                0x000000000002cc82                uipbuf_clr_attr_flag
                0x000000000002cca7                uipbuf_is_attr_flag
                0x000000000002ccc8                uipbuf_init
 .text          0x000000000002cd03      0xca3 build/cooja/mtype560.a(uip-icmp6.o)
                0x000000000002cd7c                uip_icmp6_input
                0x000000000002cdd6                uip_icmp6_register_input_handler
                0x000000000002d0e1                uip_icmp6_error_output
                0x000000000002d552                uip_icmp6_send
                0x000000000002d91f                uip_icmp6_echo_reply_callback_add
                0x000000000002d962                uip_icmp6_echo_reply_callback_rm
                0x000000000002d987                uip_icmp6_init
 .text          0x000000000002d9a6      0x197 build/cooja/mtype560.a(uip-packetqueue)
                0x000000000002d9de                uip_packetqueue_new
                0x000000000002d9f4                uip_packetqueue_alloc
                0x000000000002da6a                uip_packetqueue_free
                0x000000000002dabb                uip_packetqueue_buf
                0x000000000002dae3                uip_packetqueue_buflen
                0x000000000002db0e                uip_packetqueue_set_buflen
 .text          0x000000000002db3d      0x13c build/cooja/mtype560.a(uip-udp-packet.)
                0x000000000002db3d                uip_udp_packet_send
                0x000000000002dbb8                uip_udp_packet_sendto
 .text          0x000000000002dc79     0x229e build/cooja/mtype560.a(rpl-icmp6.o)
                0x000000000002ddfd                rpl_icmp6_update_nbr_table
                0x000000000002e02f                rpl_icmp6_dis_output
                0x000000000002eafe                rpl_icmp6_dio_output
                0x000000000002f73e                rpl_icmp6_dao_output
                0x000000000002fdb2                rpl_icmp6_dao_ack_output
                0x000000000002fee0                rpl_icmp6_init
 .text          0x000000000002ff17      0xe1b build/cooja/mtype560.a(rpl-neighbor.o)
                0x000000000002ffa6                rpl_neighbor_snprint
                0x00000000000302dd                rpl_neighbor_print_list
                0x000000000003053b                rpl_neighbor_count
                0x000000000003061e                rpl_neighbor_get_from_lladdr
                0x0000000000030645                rpl_neighbor_is_acceptable_parent
                0x000000000003068d                rpl_neighbor_get_link_metric
                0x00000000000306d5                rpl_neighbor_rank_via_nbr
                0x000000000003071d                rpl_neighbor_get_lladdr
                0x0000000000030744                rpl_neighbor_get_ipaddr
                0x000000000003076e                rpl_neighbor_get_link_stats
                0x0000000000030798                rpl_neighbor_is_fresh
                0x00000000000307c2                rpl_neighbor_is_reachable
                0x0000000000030816                rpl_neighbor_is_parent
                0x000000000003084b                rpl_neighbor_set_preferred_parent
                0x00000000000309df                rpl_neighbor_remove_all
                0x0000000000030a7f                rpl_neighbor_get_from_ipaddr
                0x0000000000030bb0                rpl_neighbor_select_best
                0x0000000000030d12                rpl_neighbor_init
 .text          0x0000000000030d32     0x1bbf build/cooja/mtype560.a(rpl-dag.o)
                0x0000000000030d32                rpl_dag_state_to_str
                0x0000000000030d7f                rpl_dag_get_root_ipaddr
                0x0000000000030dc5                rpl_dag_leave
                0x0000000000030ef4                rpl_dag_poison_and_leave
                0x0000000000030f0e                rpl_dag_periodic
                0x0000000000031059                rpl_is_addr_in_our_dag
                0x00000000000310ae                rpl_get_default_instance
                0x00000000000310d1                rpl_get_any_dag
                0x0000000000031136                rpl_refresh_routes
                0x0000000000031205                rpl_global_repair
                0x00000000000313af                rpl_local_repair
                0x0000000000031453                rpl_dag_ready_to_advertise
                0x00000000000314a7                rpl_dag_update_state
                0x000000000003231e                rpl_process_dio
                0x00000000000323fd                rpl_process_dis
                0x0000000000032488                rpl_process_dao
                0x000000000003256f                rpl_process_dao_ack
                0x0000000000032664                rpl_process_hbh
                0x00000000000326bf                rpl_dag_init_root
                0x00000000000328d1                rpl_dag_init
 .text          0x00000000000328f1      0xea0 build/cooja/mtype560.a(rpl-timers.o)
                0x00000000000328f1                rpl_timers_schedule_periodic_dis
                0x0000000000032b32                rpl_timers_dio_reset
                0x0000000000032cf4                rpl_timers_schedule_unicast_dio
                0x0000000000032ebf                rpl_timers_schedule_dao
                0x0000000000032fba                rpl_timers_schedule_dao_ack
                0x000000000003306e                rpl_timers_notify_dao_ack
                0x00000000000330d8                get_probing_delay
                0x0000000000033121                get_probing_target
                0x000000000003347f                rpl_schedule_probing
                0x00000000000334bc                rpl_schedule_probing_now
                0x000000000003353f                rpl_timers_unschedule_leaving
                0x000000000003357f                rpl_timers_schedule_leaving
                0x00000000000335d0                rpl_timers_init
                0x0000000000033697                rpl_timers_stop_dag_timers
                0x0000000000033720                rpl_timers_unschedule_state_update
                0x0000000000033746                rpl_timers_schedule_state_update
 .text          0x0000000000033791     0x1483 build/cooja/mtype560.a(rpl-ext-header.)
                0x0000000000033791                rpl_ext_header_srh_get_next_hop
                0x000000000003389b                rpl_ext_header_srh_update
                0x00000000000342e5                rpl_ext_header_hbh_update
                0x0000000000034972                rpl_ext_header_update
                0x0000000000034a18                rpl_ext_header_remove
 .text          0x0000000000034c14      0x235 build/cooja/mtype560.a(rpl-nbr-policy.)
                0x0000000000034df7                rpl_nbr_policy_find_removable
 .text          0x0000000000034e49      0x392 build/cooja/mtype560.a(rpl-mrhof.o)
 .text          0x00000000000351db      0x234 build/cooja/mtype560.a(orchestra-rule-)
 .text          0x000000000003540f       0xa8 build/cooja/mtype560.a(orchestra-rule-)
 .text          0x00000000000354b7      0x4e2 build/cooja/mtype560.a(ccm-star.o)
 .text          0x0000000000035999      0x681 build/cooja/mtype560.a(aes-128.o)
 .text          0x000000000003601a     0x10bd build/cooja/mtype560.a(frame802154e-ie)
                0x000000000003614f                frame80215e_create_ie_header_ack_nack_time_correction
                0x00000000000361e9                frame80215e_create_ie_header_list_termination_1
                0x000000000003623a                frame80215e_create_ie_header_list_termination_2
                0x000000000003628b                frame80215e_create_ie_payload_list_termination
                0x00000000000362dc                frame80215e_create_ie_mlme
                0x0000000000036333                frame80215e_create_ie_tsch_synchronization
                0x0000000000036401                frame80215e_create_ie_tsch_slotframe_and_link
                0x0000000000036647                frame80215e_create_ie_tsch_timeslot
                0x000000000003673d                frame80215e_create_ie_tsch_channel_hopping_sequence
                0x0000000000036db0                frame802154e_parse_information_elements
 .text          0x00000000000370d7        0x0 /usr/lib/gcc/x86_64-linux-gnu/7/crtendS.o
 .text          0x00000000000370d7        0x0 /usr/lib/gcc/x86_64-linux-gnu/7/../../../x86_64-linux-gnu/crtn.o
 *(.gnu.warning)

.fini           0x00000000000370d8        0x9
 *(SORT_NONE(.fini))
 .fini          0x00000000000370d8        0x4 /usr/lib/gcc/x86_64-linux-gnu/7/../../../x86_64-linux-gnu/crti.o
                0x00000000000370d8                _fini
 .fini          0x00000000000370dc        0x5 /usr/lib/gcc/x86_64-linux-gnu/7/../../../x86_64-linux-gnu/crtn.o
                [!provide]                        PROVIDE (__etext = .)
                [!provide]                        PROVIDE (_etext = .)
                [!provide]                        PROVIDE (etext = .)

.rodata         0x0000000000037100     0x3300
 *(.rodata .rodata.* .gnu.linkonce.r.*)
 .rodata        0x0000000000037100       0xd4 node.o
 .rodata        0x00000000000371d4        0x6 build/cooja/mtype560.a(leds-arch.o)
                0x00000000000371d4                leds_arch_leds
 .rodata        0x00000000000371da        0x4 build/cooja/mtype560.a(pir-sensor.o)
 .rodata        0x00000000000371de        0x6 build/cooja/mtype560.a(rs232.o)
 .rodata        0x00000000000371e4        0xa build/cooja/mtype560.a(vib-sensor.o)
 *fill*         0x00000000000371ee        0x2 
 .rodata        0x00000000000371f0       0x27 build/cooja/mtype560.a(cfs-cooja.o)
 *fill*         0x0000000000037217        0x1 
 .rodata        0x0000000000037218       0x68 build/cooja/mtype560.a(cooja-radio.o)
 .rodata        0x0000000000037280        0x8 build/cooja/mtype560.a(sensors.o)
 .rodata        0x0000000000037288       0x14 build/cooja/mtype560.a(buttons.o)
                0x0000000000037294                button_hal_button_count
 *fill*         0x000000000003729c        0x4 
 .rodata        0x00000000000372a0      0x11c build/cooja/mtype560.a(contiki-main.o)
 .rodata        0x00000000000373bc       0xc4 build/cooja/mtype560.a(log.o)
 .rodata        0x0000000000037480        0xc build/cooja/mtype560.a(etimer.o)
 .rodata        0x000000000003748c        0xf build/cooja/mtype560.a(ctimer.o)
 .rodata        0x000000000003749b       0x13 build/cooja/mtype560.a(button-hal.o)
 .rodata        0x00000000000374ae        0xe build/cooja/mtype560.a(serial-line.o)
 *fill*         0x00000000000374bc        0x4 
 .rodata        0x00000000000374c0        0x8 build/cooja/mtype560.a(linkaddr.o)
                0x00000000000374c0                linkaddr_null
 .rodata        0x00000000000374c8      0x8cc build/cooja/mtype560.a(tsch.o)
                0x00000000000374c8                tsch_broadcast_address
                0x00000000000374d0                tsch_eb_address
 *fill*         0x0000000000037d94        0x4 
 .rodata        0x0000000000037d98      0x106 build/cooja/mtype560.a(uip-sr.o)
 *fill*         0x0000000000037e9e        0x2 
 .rodata        0x0000000000037ea0      0x10f build/cooja/mtype560.a(uip-ds6.o)
 .rodata        0x0000000000037faf        0xd build/cooja/mtype560.a(tcpip.o)
 *fill*         0x0000000000037fbc        0x4 
 .rodata        0x0000000000037fc0      0x1b0 build/cooja/mtype560.a(uip-ds6-route.o)
 .rodata        0x0000000000038170      0x146 build/cooja/mtype560.a(uip-ds6-nbr.o)
 *fill*         0x00000000000382b6        0x2 
 .rodata        0x00000000000382b8      0x374 build/cooja/mtype560.a(uip6.o)
 .rodata        0x000000000003862c       0x9d build/cooja/mtype560.a(uip-nd6.o)
 .rodata        0x00000000000386c9       0x13 build/cooja/mtype560.a(simple-udp.o)
 .rodata        0x00000000000386dc       0x1d build/cooja/mtype560.a(sicslowpan.o)
                0x00000000000386dc                unc_llconf
                0x00000000000386e0                unc_ctxconf
                0x00000000000386e4                unc_mxconf
                0x00000000000386e8                llprefix
 .rodata        0x00000000000386f9       0x2d build/cooja/mtype560.a(uiplib.o)
 *fill*         0x0000000000038726        0x2 
 .rodata        0x0000000000038728       0xd8 build/cooja/mtype560.a(rpl.o)
 .rodata        0x0000000000038800       0xc8 build/cooja/mtype560.a(rpl-dag-root.o)
 *fill*         0x00000000000388c8       0x18 
 .rodata        0x00000000000388e0       0xaa build/cooja/mtype560.a(cooja16.o)
                0x00000000000388e0                deployment_cooja16
 *fill*         0x000000000003898a        0x6 
 .rodata        0x0000000000038990      0x160 build/cooja/mtype560.a(simple-energest)
 .rodata        0x0000000000038af0       0x59 build/cooja/mtype560.a(orchestra.o)
 .rodata        0x0000000000038b49       0x13 build/cooja/mtype560.a(orchestra-rule-)
 *fill*         0x0000000000038b5c        0x4 
 .rodata        0x0000000000038b60       0x7d build/cooja/mtype560.a(tsch-queue.o)
 *fill*         0x0000000000038bdd        0x3 
 .rodata        0x0000000000038be0       0x18 build/cooja/mtype560.a(tsch-timeslot-t)
                0x0000000000038be0                tsch_timeslot_timing_us_10000
 .rodata        0x0000000000038bf8      0x230 build/cooja/mtype560.a(tsch-schedule.o)
 .rodata        0x0000000000038e28       0x3d build/cooja/mtype560.a(tsch-slot-opera)
 *fill*         0x0000000000038e65        0x3 
 .rodata        0x0000000000038e68       0xf1 build/cooja/mtype560.a(tsch-packet.o)
 .rodata        0x0000000000038f59        0xd build/cooja/mtype560.a(tsch-rpl.o)
 *fill*         0x0000000000038f66        0x2 
 .rodata        0x0000000000038f68      0x158 build/cooja/mtype560.a(uip-icmp6.o)
 .rodata        0x00000000000390c0      0x5a3 build/cooja/mtype560.a(rpl-icmp6.o)
 *fill*         0x0000000000039663        0x5 
 .rodata        0x0000000000039668      0x15e build/cooja/mtype560.a(rpl-neighbor.o)
 *fill*         0x00000000000397c6        0x2 
 .rodata        0x00000000000397c8      0x62c build/cooja/mtype560.a(rpl-dag.o)
 .rodata        0x0000000000039df4       0x89 build/cooja/mtype560.a(rpl-timers.o)
 *fill*         0x0000000000039e7d        0x3 
 .rodata        0x0000000000039e80      0x3e6 build/cooja/mtype560.a(rpl-ext-header.)
 *fill*         0x000000000003a266        0x2 
 .rodata        0x000000000003a268       0x42 build/cooja/mtype560.a(rpl-nbr-policy.)
 .rodata        0x000000000003a2aa       0x25 build/cooja/mtype560.a(rpl-mrhof.o)
 *fill*         0x000000000003a2cf        0x1 
 .rodata        0x000000000003a2d0       0x21 build/cooja/mtype560.a(orchestra-rule-)
 .rodata        0x000000000003a2f1        0xf build/cooja/mtype560.a(orchestra-rule-)
 .rodata        0x000000000003a300      0x100 build/cooja/mtype560.a(aes-128.o)

.rodata1
 *(.rodata1)

.eh_frame_hdr   0x000000000003a400     0x1b34
 *(.eh_frame_hdr)
 .eh_frame_hdr  0x000000000003a400     0x1b34 node.o
                0x000000000003a400                __GNU_EH_FRAME_HDR
 *(.eh_frame_entry .eh_frame_entry.*)

.eh_frame       0x000000000003bf38     0x6d8c
 *(.eh_frame)
 .eh_frame      0x000000000003bf38       0x40 /usr/lib/gcc/x86_64-linux-gnu/7/../../../x86_64-linux-gnu/crti.o
 .eh_frame      0x000000000003bf78       0x18 /usr/lib/gcc/x86_64-linux-gnu/7/../../../x86_64-linux-gnu/crti.o
                                         0x30 (size before relaxing)
 .eh_frame      0x000000000003bf90       0x48 node.o
                                         0x60 (size before relaxing)
 .eh_frame      0x000000000003bfd8      0x178 build/cooja/mtype560.o
                                        0x190 (size before relaxing)
 .eh_frame      0x000000000003c150       0x40 build/cooja/mtype560.a(simEnvChange.o)
                                         0x58 (size before relaxing)
 .eh_frame      0x000000000003c190       0x60 build/cooja/mtype560.a(cooja_mt.o)
                                         0x78 (size before relaxing)
 .eh_frame      0x000000000003c1f0       0x80 build/cooja/mtype560.a(cooja_mtarch.o)
                                         0x98 (size before relaxing)
 .eh_frame      0x000000000003c270       0xc0 build/cooja/mtype560.a(rtimer-arch.o)
                                         0xd8 (size before relaxing)
 .eh_frame      0x000000000003c330      0x160 build/cooja/mtype560.a(beep.o)
                                        0x178 (size before relaxing)
 .eh_frame      0x000000000003c490       0x80 build/cooja/mtype560.a(leds-arch.o)
                                         0x98 (size before relaxing)
 .eh_frame      0x000000000003c510       0x40 build/cooja/mtype560.a(moteid.o)
                                         0x58 (size before relaxing)
 .eh_frame      0x000000000003c550       0xa0 build/cooja/mtype560.a(pir-sensor.o)
                                         0xb8 (size before relaxing)
 .eh_frame      0x000000000003c5f0      0x100 build/cooja/mtype560.a(rs232.o)
                                        0x118 (size before relaxing)
 .eh_frame      0x000000000003c6f0       0xa0 build/cooja/mtype560.a(vib-sensor.o)
                                         0xb8 (size before relaxing)
 .eh_frame      0x000000000003c790       0xc0 build/cooja/mtype560.a(clock.o)
                                         0xd8 (size before relaxing)
 .eh_frame      0x000000000003c850      0x128 build/cooja/mtype560.a(cooja-log.o)
                                        0x140 (size before relaxing)
 .eh_frame      0x000000000003c978      0x160 build/cooja/mtype560.a(cfs-cooja.o)
                                        0x178 (size before relaxing)
 .eh_frame      0x000000000003cad8      0x3a0 build/cooja/mtype560.a(cooja-radio.o)
                                        0x3b8 (size before relaxing)
 .eh_frame      0x000000000003ce78       0xa0 build/cooja/mtype560.a(eeprom.o)
                                         0xb8 (size before relaxing)
 .eh_frame      0x000000000003cf18       0x40 build/cooja/mtype560.a(random.o)
                                         0x58 (size before relaxing)
 .eh_frame      0x000000000003cf58       0xc0 build/cooja/mtype560.a(sensors.o)
                                         0xd8 (size before relaxing)
 .eh_frame      0x000000000003d018      0x120 build/cooja/mtype560.a(leds.o)
                                        0x138 (size before relaxing)
 .eh_frame      0x000000000003d138      0x220 build/cooja/mtype560.a(gpio-hal-arch.o)
                                        0x238 (size before relaxing)
 .eh_frame      0x000000000003d358       0xa0 build/cooja/mtype560.a(buttons.o)
                                         0xb8 (size before relaxing)
 .eh_frame      0x000000000003d3f8       0xe8 build/cooja/mtype560.a(deployment.o)
                                        0x100 (size before relaxing)
 .eh_frame      0x000000000003d4e0       0x20 build/cooja/mtype560.a(contiki-main.o)
                                         0x38 (size before relaxing)
 .eh_frame      0x000000000003d500       0x40 build/cooja/mtype560.a(autostart.o)
                                         0x58 (size before relaxing)
 .eh_frame      0x000000000003d540      0x120 build/cooja/mtype560.a(log.o)
                                        0x138 (size before relaxing)
 .eh_frame      0x000000000003d660       0xa0 build/cooja/mtype560.a(energest.o)
                                         0xb8 (size before relaxing)
 .eh_frame      0x000000000003d700      0x1e0 build/cooja/mtype560.a(etimer.o)
                                        0x1f8 (size before relaxing)
 .eh_frame      0x000000000003d8e0       0x20 build/cooja/mtype560.a(node-id.o)
                                         0x38 (size before relaxing)
 .eh_frame      0x000000000003d900      0x100 build/cooja/mtype560.a(ctimer.o)
                                        0x118 (size before relaxing)
 .eh_frame      0x000000000003da00      0x1c8 build/cooja/mtype560.a(process.o)
                                        0x1e0 (size before relaxing)
 .eh_frame      0x000000000003dbc8       0x60 build/cooja/mtype560.a(rtimer.o)
                                         0x78 (size before relaxing)
 .eh_frame      0x000000000003dc28       0xa0 build/cooja/mtype560.a(timer.o)
                                         0xb8 (size before relaxing)
 .eh_frame      0x000000000003dcc8      0x1a0 build/cooja/mtype560.a(list.o)
                                        0x1b8 (size before relaxing)
 .eh_frame      0x000000000003de68      0x160 build/cooja/mtype560.a(button-hal.o)
                                        0x178 (size before relaxing)
 .eh_frame      0x000000000003dfc8       0x60 build/cooja/mtype560.a(serial-line.o)
                                         0x78 (size before relaxing)
 .eh_frame      0x000000000003e028       0xe0 build/cooja/mtype560.a(gpio-hal.o)
                                         0xf8 (size before relaxing)
 .eh_frame      0x000000000003e108      0x1a0 build/cooja/mtype560.a(queuebuf.o)
                                        0x1b8 (size before relaxing)
 .eh_frame      0x000000000003e2a8      0x288 build/cooja/mtype560.a(packetbuf.o)
                                        0x2a0 (size before relaxing)
 .eh_frame      0x000000000003e530       0x80 build/cooja/mtype560.a(netstack.o)
                                         0x98 (size before relaxing)
 .eh_frame      0x000000000003e5b0       0x60 build/cooja/mtype560.a(linkaddr.o)
                                         0x78 (size before relaxing)
 .eh_frame      0x000000000003e610      0x380 build/cooja/mtype560.a(tsch.o)
                                        0x398 (size before relaxing)
 .eh_frame      0x000000000003e990      0x180 build/cooja/mtype560.a(uip-sr.o)
                                        0x198 (size before relaxing)
 .eh_frame      0x000000000003eb10      0x328 build/cooja/mtype560.a(uip-ds6.o)
                                        0x340 (size before relaxing)
 .eh_frame      0x000000000003ee38      0x248 build/cooja/mtype560.a(tcpip.o)
                                        0x260 (size before relaxing)
 .eh_frame      0x000000000003f080      0x220 build/cooja/mtype560.a(uip-ds6-route.o)
                                        0x238 (size before relaxing)
 .eh_frame      0x000000000003f2a0      0x1c0 build/cooja/mtype560.a(uip-ds6-nbr.o)
                                        0x1d8 (size before relaxing)
 .eh_frame      0x000000000003f460      0x1e8 build/cooja/mtype560.a(uip6.o)
                                        0x200 (size before relaxing)
 .eh_frame      0x000000000003f648       0x80 build/cooja/mtype560.a(uip-nd6.o)
                                         0x98 (size before relaxing)
 .eh_frame      0x000000000003f6c8       0xc0 build/cooja/mtype560.a(simple-udp.o)
                                         0xd8 (size before relaxing)
 .eh_frame      0x000000000003f788      0x2e0 build/cooja/mtype560.a(sicslowpan.o)
                                        0x2f8 (size before relaxing)
 .eh_frame      0x000000000003fa68       0x80 build/cooja/mtype560.a(uiplib.o)
                                         0x98 (size before relaxing)
 .eh_frame      0x000000000003fae8      0x1e0 build/cooja/mtype560.a(rpl.o)
                                        0x1f8 (size before relaxing)
 .eh_frame      0x000000000003fcc8       0xa0 build/cooja/mtype560.a(rpl-dag-root.o)
                                         0xb8 (size before relaxing)
 .eh_frame      0x000000000003fd68       0xa0 build/cooja/mtype560.a(watchdog.o)
                                         0xb8 (size before relaxing)
 .eh_frame      0x000000000003fe08       0x80 build/cooja/mtype560.a(int-master.o)
                                         0x98 (size before relaxing)
 .eh_frame      0x000000000003fe88       0xa0 build/cooja/mtype560.a(simple-energest)
                                         0xb8 (size before relaxing)
 .eh_frame      0x000000000003ff28       0xe0 build/cooja/mtype560.a(orchestra.o)
                                         0xf8 (size before relaxing)
 .eh_frame      0x0000000000040008       0x80 build/cooja/mtype560.a(orchestra-rule-)
                                         0x98 (size before relaxing)
 .eh_frame      0x0000000000040088       0xc0 build/cooja/mtype560.a(stimer.o)
                                         0xd8 (size before relaxing)
 .eh_frame      0x0000000000040148      0x120 build/cooja/mtype560.a(ringbufindex.o)
                                        0x138 (size before relaxing)
 .eh_frame      0x0000000000040268       0xa0 build/cooja/mtype560.a(memb.o)
                                         0xb8 (size before relaxing)
 .eh_frame      0x0000000000040308       0xa0 build/cooja/mtype560.a(ringbuf.o)
                                         0xb8 (size before relaxing)
 .eh_frame      0x00000000000403a8      0x2a0 build/cooja/mtype560.a(nbr-table.o)
                                        0x2b8 (size before relaxing)
 .eh_frame      0x0000000000040648      0x120 build/cooja/mtype560.a(link-stats.o)
                                        0x138 (size before relaxing)
 .eh_frame      0x0000000000040768       0x48 build/cooja/mtype560.a(mac-sequence.o)
                                         0x60 (size before relaxing)
 .eh_frame      0x00000000000407b0       0x20 build/cooja/mtype560.a(mac.o)
                                         0x38 (size before relaxing)
 .eh_frame      0x00000000000407d0       0xa8 build/cooja/mtype560.a(framer-802154.o)
                                         0xc0 (size before relaxing)
 .eh_frame      0x0000000000040878      0x1a8 build/cooja/mtype560.a(frame802154.o)
                                        0x1c0 (size before relaxing)
 .eh_frame      0x0000000000040a20      0x308 build/cooja/mtype560.a(tsch-queue.o)
                                        0x320 (size before relaxing)
 .eh_frame      0x0000000000040d28      0x250 build/cooja/mtype560.a(tsch-schedule.o)
                                        0x268 (size before relaxing)
 .eh_frame      0x0000000000040f78      0x268 build/cooja/mtype560.a(tsch-slot-opera)
                                        0x280 (size before relaxing)
 .eh_frame      0x00000000000411e0      0x128 build/cooja/mtype560.a(tsch-packet.o)
                                        0x140 (size before relaxing)
 .eh_frame      0x0000000000041308       0xc0 build/cooja/mtype560.a(tsch-security.o)
                                         0xd8 (size before relaxing)
 .eh_frame      0x00000000000413c8       0xc0 build/cooja/mtype560.a(tsch-rpl.o)
                                         0xd8 (size before relaxing)
 .eh_frame      0x0000000000041488       0xe0 build/cooja/mtype560.a(tsch-adaptive-t)
                                         0xf8 (size before relaxing)
 .eh_frame      0x0000000000041568      0x200 build/cooja/mtype560.a(uipbuf.o)
                                        0x218 (size before relaxing)
 .eh_frame      0x0000000000041768      0x148 build/cooja/mtype560.a(uip-icmp6.o)
                                        0x160 (size before relaxing)
 .eh_frame      0x00000000000418b0       0xe0 build/cooja/mtype560.a(uip-packetqueue)
                                         0xf8 (size before relaxing)
 .eh_frame      0x0000000000041990       0x40 build/cooja/mtype560.a(uip-udp-packet.)
                                         0x58 (size before relaxing)
 .eh_frame      0x00000000000419d0      0x1c0 build/cooja/mtype560.a(rpl-icmp6.o)
                                        0x1d8 (size before relaxing)
 .eh_frame      0x0000000000041b90      0x2d8 build/cooja/mtype560.a(rpl-neighbor.o)
                                        0x2f0 (size before relaxing)
 .eh_frame      0x0000000000041e68      0x360 build/cooja/mtype560.a(rpl-dag.o)
                                        0x378 (size before relaxing)
 .eh_frame      0x00000000000421c8      0x3a8 build/cooja/mtype560.a(rpl-timers.o)
                                        0x3c0 (size before relaxing)
 .eh_frame      0x0000000000042570      0x128 build/cooja/mtype560.a(rpl-ext-header.)
                                        0x140 (size before relaxing)
 .eh_frame      0x0000000000042698       0x80 build/cooja/mtype560.a(rpl-nbr-policy.)
                                         0x98 (size before relaxing)
 .eh_frame      0x0000000000042718      0x148 build/cooja/mtype560.a(rpl-mrhof.o)
                                        0x160 (size before relaxing)
 .eh_frame      0x0000000000042860       0xe0 build/cooja/mtype560.a(orchestra-rule-)
                                         0xf8 (size before relaxing)
 .eh_frame      0x0000000000042940       0x40 build/cooja/mtype560.a(orchestra-rule-)
                                         0x58 (size before relaxing)
 .eh_frame      0x0000000000042980       0xc0 build/cooja/mtype560.a(ccm-star.o)
                                         0xd8 (size before relaxing)
 .eh_frame      0x0000000000042a40       0x60 build/cooja/mtype560.a(aes-128.o)
                                         0x78 (size before relaxing)
 .eh_frame      0x0000000000042aa0      0x220 build/cooja/mtype560.a(frame802154e-ie)
                                        0x238 (size before relaxing)
 .eh_frame      0x0000000000042cc0        0x4 /usr/lib/gcc/x86_64-linux-gnu/7/crtendS.o
 *(.eh_frame.*)

.gcc_except_table
 *(.gcc_except_table .gcc_except_table.*)

.gnu_extab
 *(.gnu_extab*)

.exception_ranges
 *(.exception_ranges .exception_ranges*)
                0x0000000000243570                . = DATA_SEGMENT_ALIGN (CONSTANT (MAXPAGESIZE), CONSTANT (COMMONPAGESIZE))

.eh_frame
 *(.eh_frame)
 *(.eh_frame.*)

.gnu_extab
 *(.gnu_extab)

.gcc_except_table
 *(.gcc_except_table .gcc_except_table.*)

.exception_ranges
 *(.exception_ranges .exception_ranges*)

.tdata
 *(.tdata .tdata.* .gnu.linkonce.td.*)

.tbss
 *(.tbss .tbss.* .gnu.linkonce.tb.*)
 *(.tcommon)

.preinit_array
 *(.preinit_array)

.init_array     0x0000000000243570        0x8
 *(SORT_BY_INIT_PRIORITY(.init_array.*) SORT_BY_INIT_PRIORITY(.ctors.*))
 *(.init_array EXCLUDE_FILE(*crtend?.o *crtend.o *crtbegin?.o *crtbegin.o) .ctors)
 .init_array    0x0000000000243570        0x8 /usr/lib/gcc/x86_64-linux-gnu/7/crtbeginS.o

.fini_array     0x0000000000243578        0x8
 *(SORT_BY_INIT_PRIORITY(.fini_array.*) SORT_BY_INIT_PRIORITY(.dtors.*))
 *(.fini_array EXCLUDE_FILE(*crtend?.o *crtend.o *crtbegin?.o *crtbegin.o) .dtors)
 .fini_array    0x0000000000243578        0x8 /usr/lib/gcc/x86_64-linux-gnu/7/crtbeginS.o

.ctors
 *crtbegin.o(.ctors)
 *crtbegin?.o(.ctors)
 *(EXCLUDE_FILE(*crtend?.o *crtend.o) .ctors)
 *(SORT_BY_NAME(.ctors.*))
 *(.ctors)

.dtors
 *crtbegin.o(.dtors)
 *crtbegin?.o(.dtors)
 *(EXCLUDE_FILE(*crtend?.o *crtend.o) .dtors)
 *(SORT_BY_NAME(.dtors.*))
 *(.dtors)

.jcr
 *(.jcr)

.data.rel.ro    0x0000000000243580      0x370
 *(.data.rel.ro.local* .gnu.linkonce.d.rel.ro.local.*)
 .data.rel.ro.local
                0x0000000000243580       0x10 build/cooja/mtype560.a(beep.o)
                0x0000000000243580                beep_interface
 .data.rel.ro.local
                0x0000000000243590       0x10 build/cooja/mtype560.a(leds-arch.o)
                0x0000000000243590                leds_interface
 .data.rel.ro.local
                0x00000000002435a0       0x10 build/cooja/mtype560.a(moteid.o)
                0x00000000002435a0                moteid_interface
 *fill*         0x00000000002435b0       0x10 
 .data.rel.ro.local
                0x00000000002435c0       0x40 build/cooja/mtype560.a(pir-sensor.o)
                0x00000000002435c0                pir_interface
                0x00000000002435e0                pir_sensor
 .data.rel.ro.local
                0x0000000000243600       0x10 build/cooja/mtype560.a(rs232.o)
                0x0000000000243600                rs232_interface
 *fill*         0x0000000000243610       0x10 
 .data.rel.ro.local
                0x0000000000243620       0x40 build/cooja/mtype560.a(vib-sensor.o)
                0x0000000000243620                vib_interface
                0x0000000000243640                vib_sensor
 .data.rel.ro.local
                0x0000000000243660       0x10 build/cooja/mtype560.a(clock.o)
                0x0000000000243660                clock_interface
 .data.rel.ro.local
                0x0000000000243670       0x10 build/cooja/mtype560.a(cooja-log.o)
                0x0000000000243670                simlog_interface
 .data.rel.ro.local
                0x0000000000243680       0x10 build/cooja/mtype560.a(cfs-cooja.o)
                0x0000000000243680                cfs_interface
 *fill*         0x0000000000243690       0x10 
 .data.rel.ro.local
                0x00000000002436a0       0x90 build/cooja/mtype560.a(cooja-radio.o)
                0x00000000002436a0                radio_interface
                0x00000000002436c0                cooja_radio_driver
 .data.rel.ro.local
                0x0000000000243730       0x10 build/cooja/mtype560.a(eeprom.o)
                0x0000000000243730                eeprom_interface
 .data.rel.ro.local
                0x0000000000243740       0x40 build/cooja/mtype560.a(buttons.o)
                0x0000000000243740                button_interface
                0x0000000000243760                button_sensor
 .data.rel.ro.local
                0x0000000000243780       0x38 build/cooja/mtype560.a(tsch.o)
                0x0000000000243780                tschmac_driver
 *fill*         0x00000000002437b8        0x8 
 .data.rel.ro.local
                0x00000000002437c0       0x18 build/cooja/mtype560.a(framer-802154.o)
                0x00000000002437c0                framer_802154
 *fill*         0x00000000002437d8        0x8 
 .data.rel.ro.local
                0x00000000002437e0       0x10 build/cooja/mtype560.a(ccm-star.o)
                0x00000000002437e0                ccm_star_driver
 .data.rel.ro.local
                0x00000000002437f0       0x10 build/cooja/mtype560.a(aes-128.o)
                0x00000000002437f0                aes_128_driver
 *(.data.rel.ro .data.rel.ro.* .gnu.linkonce.d.rel.ro.*)
 .data.rel.ro   0x0000000000243800        0x0 /usr/lib/gcc/x86_64-linux-gnu/7/../../../x86_64-linux-gnu/crti.o
 .data.rel.ro   0x0000000000243800       0x10 node.o
                0x0000000000243800                autostart_processes
 *fill*         0x0000000000243810       0x10 
 .data.rel.ro   0x0000000000243820       0x20 build/cooja/mtype560.a(sicslowpan.o)
                0x0000000000243820                sicslowpan_driver
 .data.rel.ro   0x0000000000243840       0xa8 build/cooja/mtype560.a(rpl.o)
                0x0000000000243840                rpl_lite_driver
 .data.rel.ro   0x00000000002438e8        0x8 build/cooja/mtype560.a(rpl-dag.o)

.dynamic        0x00000000002438f0      0x1c0
 *(.dynamic)
 .dynamic       0x00000000002438f0      0x1c0 /usr/lib/gcc/x86_64-linux-gnu/7/../../../x86_64-linux-gnu/crti.o
                0x00000000002438f0                _DYNAMIC

.got            0x0000000000243ab0      0x550
 *(.got)
 .got           0x0000000000243ab0      0x550 /usr/lib/gcc/x86_64-linux-gnu/7/../../../x86_64-linux-gnu/crti.o
 *(.igot)
                0x0000000000244fe8                . = DATA_SEGMENT_RELRO_END (., (SIZEOF (.got.plt) >= 0x18)?0x18:0x0)

.got.plt        0x0000000000244000      0xdb0
 *(.got.plt)
 .got.plt       0x0000000000244000      0xdb0 /usr/lib/gcc/x86_64-linux-gnu/7/../../../x86_64-linux-gnu/crti.o
                0x0000000000244000                _GLOBAL_OFFSET_TABLE_
 *(.igot.plt)

.data           0x0000000000244dc0      0x958
 *(.data .data.* .gnu.linkonce.d.*)
 .data          0x0000000000244dc0        0x0 /usr/lib/gcc/x86_64-linux-gnu/7/../../../x86_64-linux-gnu/crti.o
 .data          0x0000000000244dc0        0x0 /usr/lib/gcc/x86_64-linux-gnu/7/crtbeginS.o
 .data.rel.local
                0x0000000000244dc0        0x8 /usr/lib/gcc/x86_64-linux-gnu/7/crtbeginS.o
                0x0000000000244dc0                __dso_handle
 .data          0x0000000000244dc8        0x0 node.o
 *fill*         0x0000000000244dc8       0x18 
 .data.rel.local
                0x0000000000244de0       0x20 node.o
                0x0000000000244de0                app_process
 .data          0x0000000000244e00        0x0 build/cooja/mtype560.o
 .data.rel      0x0000000000244e00       0xa0 build/cooja/mtype560.o
                0x0000000000244e00                simInterfaces
                0x0000000000244e80                sensors
 .data          0x0000000000244ea0        0x0 build/cooja/mtype560.a(simEnvChange.o)
 .data          0x0000000000244ea0        0x0 build/cooja/mtype560.a(cooja_mt.o)
 .data          0x0000000000244ea0        0x0 build/cooja/mtype560.a(cooja_mtarch.o)
 .data          0x0000000000244ea0        0x0 build/cooja/mtype560.a(rtimer-arch.o)
 .data          0x0000000000244ea0        0x0 build/cooja/mtype560.a(beep.o)
 .data          0x0000000000244ea0        0x0 build/cooja/mtype560.a(leds-arch.o)
 .data          0x0000000000244ea0        0x0 build/cooja/mtype560.a(moteid.o)
 .data          0x0000000000244ea0        0x0 build/cooja/mtype560.a(pir-sensor.o)
 .data          0x0000000000244ea0        0x0 build/cooja/mtype560.a(rs232.o)
 .data          0x0000000000244ea0        0x0 build/cooja/mtype560.a(vib-sensor.o)
 .data          0x0000000000244ea0        0x0 build/cooja/mtype560.a(clock.o)
 .data          0x0000000000244ea0        0x0 build/cooja/mtype560.a(cooja-log.o)
 .data          0x0000000000244ea0        0x0 build/cooja/mtype560.a(cfs-cooja.o)
 .data          0x0000000000244ea0       0x1c build/cooja/mtype560.a(cooja-radio.o)
                0x0000000000244ea0                simRadioHWOn
                0x0000000000244ea4                simSignalStrength
                0x0000000000244ea8                simLastSignalStrength
                0x0000000000244eac                simPower
                0x0000000000244eb0                simRadioChannel
                0x0000000000244eb4                simLQI
 *fill*         0x0000000000244ebc        0x4 
 .data.rel.local
                0x0000000000244ec0       0x20 build/cooja/mtype560.a(cooja-radio.o)
                0x0000000000244ec0                cooja_radio_process
 .data          0x0000000000244ee0        0x0 build/cooja/mtype560.a(eeprom.o)
 .data          0x0000000000244ee0        0x0 build/cooja/mtype560.a(random.o)
 .data          0x0000000000244ee0        0x0 build/cooja/mtype560.a(sensors.o)
 .data.rel.local
                0x0000000000244ee0       0x20 build/cooja/mtype560.a(sensors.o)
                0x0000000000244ee0                sensors_process
 .data          0x0000000000244f00        0x0 build/cooja/mtype560.a(leds.o)
 .data          0x0000000000244f00        0x0 build/cooja/mtype560.a(gpio-hal-arch.o)
 .data          0x0000000000244f00        0x1 build/cooja/mtype560.a(buttons.o)
                0x0000000000244f00                simButtonIsActive
 *fill*         0x0000000000244f01       0x1f 
 .data.rel.local
                0x0000000000244f20       0xb0 build/cooja/mtype560.a(buttons.o)
                0x0000000000244fc0                button_hal_buttons
 .data          0x0000000000244fd0        0x0 build/cooja/mtype560.a(deployment.o)
 .data          0x0000000000244fd0        0x0 build/cooja/mtype560.a(contiki-main.o)
 .data          0x0000000000244fd0        0x0 build/cooja/mtype560.a(autostart.o)
 .data          0x0000000000244fd0       0x10 build/cooja/mtype560.a(log.o)
                0x0000000000244fd0                curr_log_level_rpl
                0x0000000000244fd4                curr_log_level_ipv6
                0x0000000000244fd8                curr_log_level_mac
                0x0000000000244fdc                curr_log_level_main
 .data.rel      0x0000000000244fe0      0x138 build/cooja/mtype560.a(log.o)
                0x0000000000244fe0                all_modules
 .data          0x0000000000245118        0x0 build/cooja/mtype560.a(energest.o)
 .data          0x0000000000245118        0x0 build/cooja/mtype560.a(etimer.o)
 *fill*         0x0000000000245118        0x8 
 .data.rel.local
                0x0000000000245120       0x20 build/cooja/mtype560.a(etimer.o)
                0x0000000000245120                etimer_process
 .data          0x0000000000245140        0x0 build/cooja/mtype560.a(node-id.o)
 .data          0x0000000000245140        0x0 build/cooja/mtype560.a(ctimer.o)
 .data.rel.local
                0x0000000000245140       0x40 build/cooja/mtype560.a(ctimer.o)
                0x0000000000245160                ctimer_process
 .data          0x0000000000245180        0x0 build/cooja/mtype560.a(process.o)
 .data          0x0000000000245180        0x0 build/cooja/mtype560.a(rtimer.o)
 .data          0x0000000000245180        0x0 build/cooja/mtype560.a(timer.o)
 .data          0x0000000000245180        0x0 build/cooja/mtype560.a(list.o)
 .data          0x0000000000245180        0x0 build/cooja/mtype560.a(button-hal.o)
 .data.rel.local
                0x0000000000245180       0x20 build/cooja/mtype560.a(button-hal.o)
                0x0000000000245180                button_hal_process
 .data          0x00000000002451a0        0x0 build/cooja/mtype560.a(serial-line.o)
 .data.rel.local
                0x00000000002451a0       0x20 build/cooja/mtype560.a(serial-line.o)
                0x00000000002451a0                serial_line_process
 .data          0x00000000002451c0        0x0 build/cooja/mtype560.a(gpio-hal.o)
 .data.rel.local
                0x00000000002451c0        0x8 build/cooja/mtype560.a(gpio-hal.o)
 .data          0x00000000002451c8        0x0 build/cooja/mtype560.a(queuebuf.o)
 *fill*         0x00000000002451c8        0x8 
 .data.rel.local
                0x00000000002451d0       0x38 build/cooja/mtype560.a(queuebuf.o)
 .data          0x0000000000245208        0x0 build/cooja/mtype560.a(packetbuf.o)
 .data.rel.local
                0x0000000000245208        0x8 build/cooja/mtype560.a(packetbuf.o)
 .data          0x0000000000245210        0x0 build/cooja/mtype560.a(netstack.o)
 .data.rel.local
                0x0000000000245210        0x8 build/cooja/mtype560.a(netstack.o)
 .data          0x0000000000245218        0x0 build/cooja/mtype560.a(linkaddr.o)
 .data          0x0000000000245218        0x0 build/cooja/mtype560.a(tsch.o)
 *fill*         0x0000000000245218        0x8 
 .data.rel.local
                0x0000000000245220       0x60 build/cooja/mtype560.a(tsch.o)
                0x0000000000245220                tsch_process
                0x0000000000245240                tsch_send_eb_process
                0x0000000000245260                tsch_pending_events_process
 .data          0x0000000000245280        0x0 build/cooja/mtype560.a(uip-sr.o)
 .data.rel.local
                0x0000000000245280       0x28 build/cooja/mtype560.a(uip-sr.o)
 .data          0x00000000002452a8        0x0 build/cooja/mtype560.a(uip-ds6.o)
 .data          0x00000000002452a8        0x0 build/cooja/mtype560.a(tcpip.o)
 *fill*         0x00000000002452a8       0x18 
 .data.rel.local
                0x00000000002452c0       0x20 build/cooja/mtype560.a(tcpip.o)
                0x00000000002452c0                tcpip_process
 .data          0x00000000002452e0        0x0 build/cooja/mtype560.a(uip-ds6-route.o)
 .data.rel.local
                0x00000000002452e0       0x28 build/cooja/mtype560.a(uip-ds6-route.o)
 .data          0x0000000000245308        0x0 build/cooja/mtype560.a(uip-ds6-nbr.o)
 *fill*         0x0000000000245308        0x8 
 .data.rel.local
                0x0000000000245310       0x20 build/cooja/mtype560.a(uip-ds6-nbr.o)
 .data          0x0000000000245330        0x0 build/cooja/mtype560.a(uip6.o)
 .data          0x0000000000245330        0x0 build/cooja/mtype560.a(uip-nd6.o)
 .data.rel.local
                0x0000000000245330       0x18 build/cooja/mtype560.a(uip-nd6.o)
 .data          0x0000000000245348        0x0 build/cooja/mtype560.a(simple-udp.o)
 *fill*         0x0000000000245348       0x18 
 .data.rel.local
                0x0000000000245360       0x20 build/cooja/mtype560.a(simple-udp.o)
                0x0000000000245360                simple_udp_process
 .data          0x0000000000245380        0x0 build/cooja/mtype560.a(sicslowpan.o)
 .data          0x0000000000245380        0x0 build/cooja/mtype560.a(uiplib.o)
 .data          0x0000000000245380        0x0 build/cooja/mtype560.a(rpl.o)
 .data          0x0000000000245380        0x0 build/cooja/mtype560.a(rpl-dag-root.o)
 .data          0x0000000000245380        0x0 build/cooja/mtype560.a(watchdog.o)
 .data          0x0000000000245380        0x0 build/cooja/mtype560.a(int-master.o)
 .data          0x0000000000245380        0x0 build/cooja/mtype560.a(cooja16.o)
 .data          0x0000000000245380        0x0 build/cooja/mtype560.a(simple-energest)
 .data.rel.local
                0x0000000000245380       0x20 build/cooja/mtype560.a(simple-energest)
                0x0000000000245380                simple_energest_process
 .data          0x00000000002453a0        0x0 build/cooja/mtype560.a(orchestra.o)
 .data.rel.local
                0x00000000002453a0       0x18 build/cooja/mtype560.a(orchestra.o)
 *fill*         0x00000000002453b8        0x8 
 .data.rel      0x00000000002453c0       0x18 build/cooja/mtype560.a(orchestra.o)
                0x00000000002453c0                all_rules
 .data          0x00000000002453d8        0x0 build/cooja/mtype560.a(orchestra-rule-)
 *fill*         0x00000000002453d8        0x8 
 .data.rel.local
                0x00000000002453e0       0x38 build/cooja/mtype560.a(orchestra-rule-)
                0x00000000002453e0                eb_per_time_source
 .data          0x0000000000245418        0x0 build/cooja/mtype560.a(stimer.o)
 .data          0x0000000000245418        0x0 build/cooja/mtype560.a(ringbufindex.o)
 .data          0x0000000000245418        0x0 build/cooja/mtype560.a(memb.o)
 .data          0x0000000000245418        0x0 build/cooja/mtype560.a(ringbuf.o)
 .data          0x0000000000245418        0x0 build/cooja/mtype560.a(nbr-table.o)
 *fill*         0x0000000000245418        0x8 
 .data.rel.local
                0x0000000000245420       0x20 build/cooja/mtype560.a(nbr-table.o)
 .data          0x0000000000245440        0x0 build/cooja/mtype560.a(link-stats.o)
 .data.rel.local
                0x0000000000245440       0x20 build/cooja/mtype560.a(link-stats.o)
 .data          0x0000000000245460        0x0 build/cooja/mtype560.a(mac-sequence.o)
 .data          0x0000000000245460        0x0 build/cooja/mtype560.a(mac.o)
 .data          0x0000000000245460        0x0 build/cooja/mtype560.a(framer-802154.o)
 .data          0x0000000000245460        0x2 build/cooja/mtype560.a(frame802154.o)
 .data          0x0000000000245462        0x0 build/cooja/mtype560.a(tsch-queue.o)
 *fill*         0x0000000000245462        0xe 
 .data.rel.local
                0x0000000000245470       0x40 build/cooja/mtype560.a(tsch-queue.o)
 .data          0x00000000002454b0        0x0 build/cooja/mtype560.a(tsch-timeslot-t)
 .data          0x00000000002454b0        0x0 build/cooja/mtype560.a(tsch-schedule.o)
 .data.rel.local
                0x00000000002454b0       0x40 build/cooja/mtype560.a(tsch-schedule.o)
 .data          0x00000000002454f0        0x4 build/cooja/mtype560.a(tsch-slot-opera)
 .data          0x00000000002454f4        0x0 build/cooja/mtype560.a(tsch-packet.o)
 *fill*         0x00000000002454f4        0xc 
 .data          0x0000000000245500       0x20 build/cooja/mtype560.a(tsch-security.o)
 .data          0x0000000000245520        0x0 build/cooja/mtype560.a(tsch-rpl.o)
 .data          0x0000000000245520        0x0 build/cooja/mtype560.a(tsch-adaptive-t)
 .data          0x0000000000245520        0x0 build/cooja/mtype560.a(uipbuf.o)
 .data          0x0000000000245520        0x0 build/cooja/mtype560.a(uip-icmp6.o)
 .data.rel.local
                0x0000000000245520       0x48 build/cooja/mtype560.a(uip-icmp6.o)
 .data          0x0000000000245568        0x0 build/cooja/mtype560.a(uip-packetqueue)
 *fill*         0x0000000000245568        0x8 
 .data.rel.local
                0x0000000000245570       0x18 build/cooja/mtype560.a(uip-packetqueue)
 .data          0x0000000000245588        0x0 build/cooja/mtype560.a(uip-udp-packet.)
 .data          0x0000000000245588        0x0 build/cooja/mtype560.a(rpl-icmp6.o)
 *fill*         0x0000000000245588        0x8 
 .data.rel.local
                0x0000000000245590       0x78 build/cooja/mtype560.a(rpl-icmp6.o)
 .data          0x0000000000245608        0x0 build/cooja/mtype560.a(rpl-neighbor.o)
 *fill*         0x0000000000245608        0x8 
 .data.rel.local
                0x0000000000245610       0x20 build/cooja/mtype560.a(rpl-neighbor.o)
                0x0000000000245628                rpl_neighbors
 .data          0x0000000000245630        0x0 build/cooja/mtype560.a(rpl-dag.o)
 .data          0x0000000000245630        0x0 build/cooja/mtype560.a(rpl-timers.o)
 .data          0x0000000000245630        0x0 build/cooja/mtype560.a(rpl-ext-header.)
 .data          0x0000000000245630        0x0 build/cooja/mtype560.a(rpl-nbr-policy.)
 .data          0x0000000000245630        0x0 build/cooja/mtype560.a(rpl-mrhof.o)
 *fill*         0x0000000000245630       0x10 
 .data.rel.local
                0x0000000000245640       0x48 build/cooja/mtype560.a(rpl-mrhof.o)
                0x0000000000245640                rpl_mrhof
 .data          0x0000000000245688        0x0 build/cooja/mtype560.a(orchestra-rule-)
 *fill*         0x0000000000245688       0x18 
 .data.rel.local
                0x00000000002456a0       0x38 build/cooja/mtype560.a(orchestra-rule-)
                0x00000000002456a0                unicast_per_neighbor_rpl_ns
 .data          0x00000000002456d8        0x0 build/cooja/mtype560.a(orchestra-rule-)
 *fill*         0x00000000002456d8        0x8 
 .data.rel.local
                0x00000000002456e0       0x38 build/cooja/mtype560.a(orchestra-rule-)
                0x00000000002456e0                default_common
 .data          0x0000000000245718        0x0 build/cooja/mtype560.a(ccm-star.o)
 .data          0x0000000000245718        0x0 build/cooja/mtype560.a(aes-128.o)
 .data          0x0000000000245718        0x0 build/cooja/mtype560.a(frame802154e-ie)
 .data          0x0000000000245718        0x0 /usr/lib/gcc/x86_64-linux-gnu/7/crtendS.o
 .data          0x0000000000245718        0x0 /usr/lib/gcc/x86_64-linux-gnu/7/../../../x86_64-linux-gnu/crtn.o

.tm_clone_table
                0x0000000000245718        0x0
 .tm_clone_table
                0x0000000000245718        0x0 /usr/lib/gcc/x86_64-linux-gnu/7/crtbeginS.o
 .tm_clone_table
                0x0000000000245718        0x0 /usr/lib/gcc/x86_64-linux-gnu/7/crtendS.o

.data1
 *(.data1)
                0x0000000000245718                _edata = .
                [!provide]                        PROVIDE (edata = .)
                0x0000000000245718                . = .
                0x0000000000245718                __bss_start = .

.bss            0x0000000000245720    0x13fe0
 *(.dynbss)
 .dynbss        0x0000000000245720        0x0 /usr/lib/gcc/x86_64-linux-gnu/7/../../../x86_64-linux-gnu/crti.o
 *(.bss .bss.* .gnu.linkonce.b.*)
 .bss           0x0000000000245720        0x0 /usr/lib/gcc/x86_64-linux-gnu/7/../../../x86_64-linux-gnu/crti.o
 .bss           0x0000000000245720        0x1 /usr/lib/gcc/x86_64-linux-gnu/7/crtbeginS.o
 *fill*         0x0000000000245721       0x1f 
 .bss           0x0000000000245740       0x74 node.o
 *fill*         0x00000000002457b4        0xc 
 .bss           0x00000000002457c0     0x4040 build/cooja/mtype560.o
 .bss           0x0000000000249800        0x1 build/cooja/mtype560.a(simEnvChange.o)
                0x0000000000249800                simDontFallAsleep
 *fill*         0x0000000000249801        0x7 
 .bss           0x0000000000249808        0x8 build/cooja/mtype560.a(cooja_mt.o)
 .bss           0x0000000000249810        0x8 build/cooja/mtype560.a(cooja_mtarch.o)
 .bss           0x0000000000249818        0x0 build/cooja/mtype560.a(rtimer-arch.o)
 .bss           0x0000000000249818        0x0 build/cooja/mtype560.a(beep.o)
 .bss           0x0000000000249818        0x1 build/cooja/mtype560.a(leds-arch.o)
                0x0000000000249818                simLedsValue
 .bss           0x0000000000249819        0x0 build/cooja/mtype560.a(moteid.o)
 .bss           0x0000000000249819        0x1 build/cooja/mtype560.a(pir-sensor.o)
                0x0000000000249819                simPirValue
 *fill*         0x000000000024981a        0x6 
 .bss           0x0000000000249820        0x8 build/cooja/mtype560.a(rs232.o)
 .bss           0x0000000000249828        0x1 build/cooja/mtype560.a(vib-sensor.o)
                0x0000000000249828                simVibValue
 .bss           0x0000000000249829        0x0 build/cooja/mtype560.a(clock.o)
 *fill*         0x0000000000249829       0x17 
 .bss           0x0000000000249840     0x2020 build/cooja/mtype560.a(cooja-log.o)
 .bss           0x000000000024b860      0xfc0 build/cooja/mtype560.a(cfs-cooja.o)
                0x000000000024b860                simCFSData
                0x000000000024c800                simCFSSize
                0x000000000024c804                simCFSChanged
                0x000000000024c808                simCFSRead
                0x000000000024c80c                simCFSWritten
 .bss           0x000000000024c820       0x2c build/cooja/mtype560.a(cooja-radio.o)
                0x000000000024c820                simReceiving
                0x000000000024c824                simInSize
                0x000000000024c828                simLastPacketTimestamp
                0x000000000024c830                simOutSize
 .bss           0x000000000024c84c        0xc build/cooja/mtype560.a(eeprom.o)
                0x000000000024c84c                simEEPROMChanged
                0x000000000024c850                simEEPROMRead
                0x000000000024c854                simEEPROMWritten
 .bss           0x000000000024c858        0x0 build/cooja/mtype560.a(random.o)
 .bss           0x000000000024c858        0xc build/cooja/mtype560.a(sensors.o)
 .bss           0x000000000024c864        0x0 build/cooja/mtype560.a(leds.o)
 *fill*         0x000000000024c864       0x1c 
 .bss           0x000000000024c880       0x40 build/cooja/mtype560.a(gpio-hal-arch.o)
 .bss           0x000000000024c8c0        0x0 build/cooja/mtype560.a(buttons.o)
 .bss           0x000000000024c8c0        0x4 build/cooja/mtype560.a(deployment.o)
 .bss           0x000000000024c8c4        0x0 build/cooja/mtype560.a(contiki-main.o)
 .bss           0x000000000024c8c4        0x0 build/cooja/mtype560.a(autostart.o)
 .bss           0x000000000024c8c4       0x20 build/cooja/mtype560.a(log.o)
                0x000000000024c8c4                curr_log_level_tcpip
                0x000000000024c8c8                curr_log_level_6lowpan
                0x000000000024c8cc                curr_log_level_nullnet
                0x000000000024c8d0                curr_log_level_framer
                0x000000000024c8d4                curr_log_level_6top
                0x000000000024c8d8                curr_log_level_coap
                0x000000000024c8dc                curr_log_level_snmp
                0x000000000024c8e0                curr_log_level_lwm2m
 .bss           0x000000000024c8e4        0x0 build/cooja/mtype560.a(energest.o)
 *fill*         0x000000000024c8e4        0x4 
 .bss           0x000000000024c8e8       0x10 build/cooja/mtype560.a(etimer.o)
 .bss           0x000000000024c8f8        0x2 build/cooja/mtype560.a(node-id.o)
                0x000000000024c8f8                node_id
 *fill*         0x000000000024c8fa        0x6 
 .bss           0x000000000024c900        0x9 build/cooja/mtype560.a(ctimer.o)
 *fill*         0x000000000024c909       0x17 
 .bss           0x000000000024c920      0x321 build/cooja/mtype560.a(process.o)
                0x000000000024c920                process_list
                0x000000000024c928                process_current
 *fill*         0x000000000024cc41        0x7 
 .bss           0x000000000024cc48        0x8 build/cooja/mtype560.a(rtimer.o)
 .bss           0x000000000024cc50        0x0 build/cooja/mtype560.a(timer.o)
 .bss           0x000000000024cc50        0x0 build/cooja/mtype560.a(list.o)
 .bss           0x000000000024cc50       0x28 build/cooja/mtype560.a(button-hal.o)
 *fill*         0x000000000024cc78        0x8 
 .bss           0x000000000024cc80      0x140 build/cooja/mtype560.a(serial-line.o)
 .bss           0x000000000024cdc0        0x8 build/cooja/mtype560.a(gpio-hal.o)
 *fill*         0x000000000024cdc8       0x18 
 .bss           0x000000000024cde0     0x2f00 build/cooja/mtype560.a(queuebuf.o)
 .bss           0x000000000024fce0       0xa0 build/cooja/mtype560.a(packetbuf.o)
 .bss           0x000000000024fd80        0x8 build/cooja/mtype560.a(netstack.o)
 .bss           0x000000000024fd88        0x0 build/cooja/mtype560.a(linkaddr.o)
 *fill*         0x000000000024fd88       0x18 
 .bss           0x000000000024fda0      0x1a0 build/cooja/mtype560.a(tsch.o)
                0x000000000024fda0                tsch_is_started
                0x000000000024fda4                tsch_is_initialized
                0x000000000024fda8                tsch_is_coordinator
                0x000000000024fdac                tsch_is_associated
                0x000000000024fdb0                tsch_association_count
                0x000000000024fdb4                tsch_is_pan_secured
 .bss           0x000000000024ff40      0x428 build/cooja/mtype560.a(uip-sr.o)
 *fill*         0x0000000000250368        0x8 
 .bss           0x0000000000250370       0x40 build/cooja/mtype560.a(uip-ds6.o)
 *fill*         0x00000000002503b0       0x10 
 .bss           0x00000000002503c0       0x20 build/cooja/mtype560.a(tcpip.o)
 .bss           0x00000000002503e0       0x80 build/cooja/mtype560.a(uip-ds6-route.o)
 .bss           0x0000000000250460      0x200 build/cooja/mtype560.a(uip-ds6-nbr.o)
 .bss           0x0000000000250660        0x8 build/cooja/mtype560.a(uip6.o)
                0x0000000000250660                uip_ext_bitmap
                0x0000000000250662                uip_ext_len
                0x0000000000250664                uip_last_proto
 .bss           0x0000000000250668       0x20 build/cooja/mtype560.a(uip-nd6.o)
 *fill*         0x0000000000250688       0x18 
 .bss           0x00000000002506a0      0x520 build/cooja/mtype560.a(simple-udp.o)
 .bss           0x0000000000250bc0      0x738 build/cooja/mtype560.a(sicslowpan.o)
 .bss           0x00000000002512f8        0x0 build/cooja/mtype560.a(uiplib.o)
 .bss           0x00000000002512f8        0x1 build/cooja/mtype560.a(rpl.o)
 *fill*         0x00000000002512f9        0x7 
 .bss           0x0000000000251300       0x11 build/cooja/mtype560.a(rpl-dag-root.o)
 .bss           0x0000000000251311        0x0 build/cooja/mtype560.a(watchdog.o)
 *fill*         0x0000000000251311        0x3 
 .bss           0x0000000000251314        0x4 build/cooja/mtype560.a(int-master.o)
 .bss           0x0000000000251318        0x0 build/cooja/mtype560.a(cooja16.o)
 *fill*         0x0000000000251318        0x8 
 .bss           0x0000000000251320       0xc0 build/cooja/mtype560.a(simple-energest)
 .bss           0x00000000002513e0        0x4 build/cooja/mtype560.a(orchestra.o)
                0x00000000002513e0                orchestra_parent_knows_us
 *fill*         0x00000000002513e4        0x4 
 .bss           0x00000000002513e8       0x10 build/cooja/mtype560.a(orchestra-rule-)
 .bss           0x00000000002513f8        0x0 build/cooja/mtype560.a(stimer.o)
 .bss           0x00000000002513f8        0x0 build/cooja/mtype560.a(ringbufindex.o)
 .bss           0x00000000002513f8        0x0 build/cooja/mtype560.a(memb.o)
 .bss           0x00000000002513f8        0x0 build/cooja/mtype560.a(ringbuf.o)
 *fill*         0x00000000002513f8        0x8 
 .bss           0x0000000000251400      0x188 build/cooja/mtype560.a(nbr-table.o)
 *fill*         0x0000000000251588       0x18 
 .bss           0x00000000002515a0      0x100 build/cooja/mtype560.a(link-stats.o)
 .bss           0x00000000002516a0      0x180 build/cooja/mtype560.a(mac-sequence.o)
 .bss           0x0000000000251820        0x0 build/cooja/mtype560.a(mac.o)
 .bss           0x0000000000251820        0x2 build/cooja/mtype560.a(framer-802154.o)
 .bss           0x0000000000251822        0x0 build/cooja/mtype560.a(frame802154.o)
 *fill*         0x0000000000251822       0x1e 
 .bss           0x0000000000251840     0x2940 build/cooja/mtype560.a(tsch-queue.o)
 .bss           0x0000000000254180        0x0 build/cooja/mtype560.a(tsch-timeslot-t)
 .bss           0x0000000000254180      0x5e8 build/cooja/mtype560.a(tsch-schedule.o)
 *fill*         0x0000000000254768       0x18 
 .bss           0x0000000000254780      0x1e8 build/cooja/mtype560.a(tsch-slot-opera)
                0x0000000000254780                current_link
                0x0000000000254788                tsch_current_burst_count
 *fill*         0x0000000000254968       0x18 
 .bss           0x0000000000254980       0x20 build/cooja/mtype560.a(tsch-packet.o)
 .bss           0x00000000002549a0        0x0 build/cooja/mtype560.a(tsch-security.o)
 .bss           0x00000000002549a0        0x0 build/cooja/mtype560.a(tsch-rpl.o)
 .bss           0x00000000002549a0       0x4c build/cooja/mtype560.a(tsch-adaptive-t)
 *fill*         0x00000000002549ec        0x4 
 .bss           0x00000000002549f0       0x1c build/cooja/mtype560.a(uipbuf.o)
 *fill*         0x0000000000254a0c        0x4 
 .bss           0x0000000000254a10       0x20 build/cooja/mtype560.a(uip-icmp6.o)
 *fill*         0x0000000000254a30       0x10 
 .bss           0x0000000000254a40      0xad0 build/cooja/mtype560.a(uip-packetqueue)
 .bss           0x0000000000255510        0x0 build/cooja/mtype560.a(uip-udp-packet.)
 .bss           0x0000000000255510        0x0 build/cooja/mtype560.a(rpl-icmp6.o)
 *fill*         0x0000000000255510       0x10 
 .bss           0x0000000000255520      0x100 build/cooja/mtype560.a(rpl-neighbor.o)
 .bss           0x0000000000255620        0x0 build/cooja/mtype560.a(rpl-dag.o)
 .bss           0x0000000000255620       0x80 build/cooja/mtype560.a(rpl-timers.o)
 .bss           0x00000000002556a0        0x0 build/cooja/mtype560.a(rpl-ext-header.)
 .bss           0x00000000002556a0       0x12 build/cooja/mtype560.a(rpl-nbr-policy.)
 .bss           0x00000000002556b2        0x0 build/cooja/mtype560.a(rpl-mrhof.o)
 *fill*         0x00000000002556b2        0x6 
 .bss           0x00000000002556b8       0x10 build/cooja/mtype560.a(orchestra-rule-)
 .bss           0x00000000002556c8        0x2 build/cooja/mtype560.a(orchestra-rule-)
 .bss           0x00000000002556ca        0x0 build/cooja/mtype560.a(ccm-star.o)
 *fill*         0x00000000002556ca       0x16 
 .bss           0x00000000002556e0       0xb0 build/cooja/mtype560.a(aes-128.o)
 .bss           0x0000000000255790        0x0 build/cooja/mtype560.a(frame802154e-ie)
 .bss           0x0000000000255790        0x0 /usr/lib/gcc/x86_64-linux-gnu/7/crtendS.o
 .bss           0x0000000000255790        0x0 /usr/lib/gcc/x86_64-linux-gnu/7/../../../x86_64-linux-gnu/crtn.o
 *(COMMON)
 COMMON         0x0000000000255790        0xc build/cooja/mtype560.o
                0x0000000000255790                referenceVar
                0x0000000000255798                sensors_flags
 *fill*         0x000000000025579c        0x4 
 COMMON         0x00000000002557a0       0x10 build/cooja/mtype560.a(simEnvChange.o)
                0x00000000002557a0                simEtimerPending
                0x00000000002557a4                simProcessRunValue
                0x00000000002557a8                simEtimerNextExpirationTime
 COMMON         0x00000000002557b0       0x18 build/cooja/mtype560.a(rtimer-arch.o)
                0x00000000002557b0                simRtimerPending
                0x00000000002557b8                simRtimerCurrentTicks
                0x00000000002557c0                simRtimerNextExpirationTime
 COMMON         0x00000000002557c8        0x1 build/cooja/mtype560.a(beep.o)
                0x00000000002557c8                simBeeped
 *fill*         0x00000000002557c9        0x3 
 COMMON         0x00000000002557cc        0xc build/cooja/mtype560.a(moteid.o)
                0x00000000002557cc                simRandomSeed
                0x00000000002557d0                simMoteIDChanged
                0x00000000002557d4                simMoteID
 COMMON         0x00000000002557d8        0x2 build/cooja/mtype560.a(pir-sensor.o)
                0x00000000002557d8                simPirIsActive
                0x00000000002557d9                simPirChanged
 *fill*         0x00000000002557da        0x6 
 COMMON         0x00000000002557e0      0x820 build/cooja/mtype560.a(rs232.o)
                0x00000000002557e0                simSerialReceivingFlag
                0x00000000002557e4                simSerialReceivingLength
                0x0000000000255800                simSerialReceivingData
 COMMON         0x0000000000256000        0x2 build/cooja/mtype560.a(vib-sensor.o)
                0x0000000000256000                simVibChanged
                0x0000000000256001                simVibIsActive
 *fill*         0x0000000000256002        0x6 
 COMMON         0x0000000000256008        0x8 build/cooja/mtype560.a(clock.o)
                0x0000000000256008                simCurrentTime
 *fill*         0x0000000000256010       0x10 
 COMMON         0x0000000000256020     0x2020 build/cooja/mtype560.a(cooja-log.o)
                0x0000000000256020                simLoggedLength
                0x0000000000256024                simLoggedFlag
                0x0000000000256040                simLoggedData
 COMMON         0x0000000000258040       0xfd build/cooja/mtype560.a(cooja-radio.o)
                0x0000000000258040                simOutDataBuffer
                0x00000000002580c0                simInDataBuffer
 *fill*         0x000000000025813d        0x3 
 COMMON         0x0000000000258140      0x400 build/cooja/mtype560.a(eeprom.o)
                0x0000000000258140                simEEPROMData
 COMMON         0x0000000000258540        0x1 build/cooja/mtype560.a(sensors.o)
                0x0000000000258540                sensors_event
 COMMON         0x0000000000258541        0x2 build/cooja/mtype560.a(buttons.o)
                0x0000000000258541                simButtonIsDown
                0x0000000000258542                simButtonChanged
 *fill*         0x0000000000258543       0x1d 
 COMMON         0x0000000000258560       0x68 build/cooja/mtype560.a(energest.o)
                0x0000000000258560                energest_current_time
                0x0000000000258588                energest_current_mode
                0x00000000002585a0                energest_total_time
 COMMON         0x00000000002585c8        0x3 build/cooja/mtype560.a(button-hal.o)
                0x00000000002585c8                button_hal_periodic_event
                0x00000000002585c9                button_hal_press_event
                0x00000000002585ca                button_hal_release_event
 COMMON         0x00000000002585cb        0x1 build/cooja/mtype560.a(serial-line.o)
                0x00000000002585cb                serial_line_event_message
 *fill*         0x00000000002585cc       0x14 
 COMMON         0x00000000002585e0       0x30 build/cooja/mtype560.a(packetbuf.o)
                0x00000000002585e0                packetbuf_attrs
                0x0000000000258600                packetbuf_addrs
 COMMON         0x0000000000258610        0x8 build/cooja/mtype560.a(linkaddr.o)
                0x0000000000258610                linkaddr_node_addr
 *fill*         0x0000000000258618        0x8 
 COMMON         0x0000000000258620       0xc0 build/cooja/mtype560.a(tsch.o)
                0x0000000000258620                tsch_hopping_sequence
                0x0000000000258630                tsch_timing_us
                0x0000000000258648                tsch_current_asn
                0x0000000000258650                rx_count
                0x0000000000258658                min_drift_seen
                0x0000000000258660                tsch_timing
                0x00000000002586c0                sync_count
                0x00000000002586c8                tsch_join_priority
                0x00000000002586d0                tx_count
                0x00000000002586d8                max_drift_seen
                0x00000000002586dc                tsch_hopping_sequence_length
 COMMON         0x00000000002586e0      0x1f1 build/cooja/mtype560.a(uip-ds6.o)
                0x00000000002586e0                uip_ds6_prefix_list
                0x0000000000258740                uip_ds6_timer_periodic
                0x0000000000258760                uip_ds6_netif_addr_list_offset
                0x0000000000258780                uip_ds6_if
                0x00000000002588c0                uip_ds6_timer_ra
                0x00000000002588d0                uip_ds6_addr_size
 COMMON         0x00000000002588d1        0x1 build/cooja/mtype560.a(tcpip.o)
                0x00000000002588d1                tcpip_event
 *fill*         0x00000000002588d2        0xe 
 COMMON         0x00000000002588e0      0x690 build/cooja/mtype560.a(uip6.o)
                0x00000000002588e0                uip_slen
                0x00000000002588e8                uip_lladdr
                0x00000000002588f0                uip_appdata
                0x00000000002588f8                uip_flags
                0x0000000000258900                uip_aligned_buf
                0x0000000000258e00                SFA_on
                0x0000000000258e02                uip_len
                0x0000000000258e08                uip_sappdata
                0x0000000000258e20                uip_udp_conns
                0x0000000000258f60                uip_udp_conn
                0x0000000000258f68                uip_conn
 COMMON         0x0000000000258f70       0x10 build/cooja/mtype560.a(rpl.o)
                0x0000000000258f70                rpl_multicast_addr
 COMMON         0x0000000000258f80        0x8 build/cooja/mtype560.a(orchestra.o)
                0x0000000000258f80                orchestra_parent_linkaddr
 *fill*         0x0000000000258f88       0x18 
 COMMON         0x0000000000258fa0       0x40 build/cooja/mtype560.a(link-stats.o)
                0x0000000000258fa0                periodic_timer
 COMMON         0x0000000000258fe0       0x10 build/cooja/mtype560.a(tsch-queue.o)
                0x0000000000258fe0                n_eb
                0x0000000000258fe8                n_broadcast
 *fill*         0x0000000000258ff0       0x10 
 COMMON         0x0000000000259000      0x480 build/cooja/mtype560.a(tsch-slot-opera)
                0x0000000000259000                tsch_current_channel
                0x0000000000259001                input_ringbuf
                0x0000000000259004                tsch_current_channel_offset
                0x0000000000259008                tsch_last_sync_time
                0x0000000000259020                dequeued_array
                0x0000000000259220                dequeued_ringbuf
                0x0000000000259240                input_array
 COMMON         0x0000000000259480        0x8 build/cooja/mtype560.a(tsch-adaptive-t)
                0x0000000000259480                last_timesource_neighbor
 COMMON         0x0000000000259488        0x1 build/cooja/mtype560.a(rpl-icmp6.o)
                0x0000000000259488                SHA_on
 *fill*         0x0000000000259489       0x17 
 COMMON         0x00000000002594a0      0x260 build/cooja/mtype560.a(rpl-dag.o)
                0x00000000002594a0                curr_instance
                0x0000000000259700                . = ALIGN ((. != 0x0)?0x8:0x1)

.lbss
 *(.dynlbss)
 *(.lbss .lbss.* .gnu.linkonce.lb.*)
 *(LARGE_COMMON)
                0x0000000000259700                . = ALIGN (0x8)
                0x0000000000259700                . = SEGMENT_START ("ldata-segment", .)

.lrodata
 *(.lrodata .lrodata.* .gnu.linkonce.lr.*)

.ldata          0x0000000000659700        0x0
 *(.ldata .ldata.* .gnu.linkonce.l.*)
                0x0000000000659700                . = ALIGN ((. != 0x0)?0x8:0x1)
                0x0000000000659700                . = ALIGN (0x8)
                0x0000000000659700                _end = .
                [!provide]                        PROVIDE (end = .)
                0x0000000000659700                . = DATA_SEGMENT_END (.)

.stab
 *(.stab)

.stabstr
 *(.stabstr)

.stab.excl
 *(.stab.excl)

.stab.exclstr
 *(.stab.exclstr)

.stab.index
 *(.stab.index)

.stab.indexstr
 *(.stab.indexstr)

.comment        0x0000000000000000       0x29
 *(.comment)
 .comment       0x0000000000000000       0x29 /usr/lib/gcc/x86_64-linux-gnu/7/crtbeginS.o
                                         0x2a (size before relaxing)
 .comment       0x0000000000000029       0x2a node.o
 .comment       0x0000000000000029       0x2a build/cooja/mtype560.o
 .comment       0x0000000000000029       0x2a build/cooja/mtype560.a(simEnvChange.o)
 .comment       0x0000000000000029       0x2a build/cooja/mtype560.a(cooja_mt.o)
 .comment       0x0000000000000029       0x2a build/cooja/mtype560.a(cooja_mtarch.o)
 .comment       0x0000000000000029       0x2a build/cooja/mtype560.a(rtimer-arch.o)
 .comment       0x0000000000000029       0x2a build/cooja/mtype560.a(beep.o)
 .comment       0x0000000000000029       0x2a build/cooja/mtype560.a(leds-arch.o)
 .comment       0x0000000000000029       0x2a build/cooja/mtype560.a(moteid.o)
 .comment       0x0000000000000029       0x2a build/cooja/mtype560.a(pir-sensor.o)
 .comment       0x0000000000000029       0x2a build/cooja/mtype560.a(rs232.o)
 .comment       0x0000000000000029       0x2a build/cooja/mtype560.a(vib-sensor.o)
 .comment       0x0000000000000029       0x2a build/cooja/mtype560.a(clock.o)
 .comment       0x0000000000000029       0x2a build/cooja/mtype560.a(cooja-log.o)
 .comment       0x0000000000000029       0x2a build/cooja/mtype560.a(cfs-cooja.o)
 .comment       0x0000000000000029       0x2a build/cooja/mtype560.a(cooja-radio.o)
 .comment       0x0000000000000029       0x2a build/cooja/mtype560.a(eeprom.o)
 .comment       0x0000000000000029       0x2a build/cooja/mtype560.a(random.o)
 .comment       0x0000000000000029       0x2a build/cooja/mtype560.a(sensors.o)
 .comment       0x0000000000000029       0x2a build/cooja/mtype560.a(leds.o)
 .comment       0x0000000000000029       0x2a build/cooja/mtype560.a(gpio-hal-arch.o)
 .comment       0x0000000000000029       0x2a build/cooja/mtype560.a(buttons.o)
 .comment       0x0000000000000029       0x2a build/cooja/mtype560.a(deployment.o)
 .comment       0x0000000000000029       0x2a build/cooja/mtype560.a(contiki-main.o)
 .comment       0x0000000000000029       0x2a build/cooja/mtype560.a(autostart.o)
 .comment       0x0000000000000029       0x2a build/cooja/mtype560.a(log.o)
 .comment       0x0000000000000029       0x2a build/cooja/mtype560.a(energest.o)
 .comment       0x0000000000000029       0x2a build/cooja/mtype560.a(etimer.o)
 .comment       0x0000000000000029       0x2a build/cooja/mtype560.a(node-id.o)
 .comment       0x0000000000000029       0x2a build/cooja/mtype560.a(ctimer.o)
 .comment       0x0000000000000029       0x2a build/cooja/mtype560.a(process.o)
 .comment       0x0000000000000029       0x2a build/cooja/mtype560.a(rtimer.o)
 .comment       0x0000000000000029       0x2a build/cooja/mtype560.a(timer.o)
 .comment       0x0000000000000029       0x2a build/cooja/mtype560.a(list.o)
 .comment       0x0000000000000029       0x2a build/cooja/mtype560.a(button-hal.o)
 .comment       0x0000000000000029       0x2a build/cooja/mtype560.a(serial-line.o)
 .comment       0x0000000000000029       0x2a build/cooja/mtype560.a(gpio-hal.o)
 .comment       0x0000000000000029       0x2a build/cooja/mtype560.a(queuebuf.o)
 .comment       0x0000000000000029       0x2a build/cooja/mtype560.a(packetbuf.o)
 .comment       0x0000000000000029       0x2a build/cooja/mtype560.a(netstack.o)
 .comment       0x0000000000000029       0x2a build/cooja/mtype560.a(linkaddr.o)
 .comment       0x0000000000000029       0x2a build/cooja/mtype560.a(tsch.o)
 .comment       0x0000000000000029       0x2a build/cooja/mtype560.a(uip-sr.o)
 .comment       0x0000000000000029       0x2a build/cooja/mtype560.a(uip-ds6.o)
 .comment       0x0000000000000029       0x2a build/cooja/mtype560.a(tcpip.o)
 .comment       0x0000000000000029       0x2a build/cooja/mtype560.a(uip-ds6-route.o)
 .comment       0x0000000000000029       0x2a build/cooja/mtype560.a(uip-ds6-nbr.o)
 .comment       0x0000000000000029       0x2a build/cooja/mtype560.a(uip6.o)
 .comment       0x0000000000000029       0x2a build/cooja/mtype560.a(uip-nd6.o)
 .comment       0x0000000000000029       0x2a build/cooja/mtype560.a(simple-udp.o)
 .comment       0x0000000000000029       0x2a build/cooja/mtype560.a(sicslowpan.o)
 .comment       0x0000000000000029       0x2a build/cooja/mtype560.a(uiplib.o)
 .comment       0x0000000000000029       0x2a build/cooja/mtype560.a(rpl.o)
 .comment       0x0000000000000029       0x2a build/cooja/mtype560.a(rpl-dag-root.o)
 .comment       0x0000000000000029       0x2a build/cooja/mtype560.a(watchdog.o)
 .comment       0x0000000000000029       0x2a build/cooja/mtype560.a(int-master.o)
 .comment       0x0000000000000029       0x2a build/cooja/mtype560.a(cooja16.o)
 .comment       0x0000000000000029       0x2a build/cooja/mtype560.a(simple-energest)
 .comment       0x0000000000000029       0x2a build/cooja/mtype560.a(orchestra.o)
 .comment       0x0000000000000029       0x2a build/cooja/mtype560.a(orchestra-rule-)
 .comment       0x0000000000000029       0x2a build/cooja/mtype560.a(stimer.o)
 .comment       0x0000000000000029       0x2a build/cooja/mtype560.a(ringbufindex.o)
 .comment       0x0000000000000029       0x2a build/cooja/mtype560.a(memb.o)
 .comment       0x0000000000000029       0x2a build/cooja/mtype560.a(ringbuf.o)
 .comment       0x0000000000000029       0x2a build/cooja/mtype560.a(nbr-table.o)
 .comment       0x0000000000000029       0x2a build/cooja/mtype560.a(link-stats.o)
 .comment       0x0000000000000029       0x2a build/cooja/mtype560.a(mac-sequence.o)
 .comment       0x0000000000000029       0x2a build/cooja/mtype560.a(mac.o)
 .comment       0x0000000000000029       0x2a build/cooja/mtype560.a(framer-802154.o)
 .comment       0x0000000000000029       0x2a build/cooja/mtype560.a(frame802154.o)
 .comment       0x0000000000000029       0x2a build/cooja/mtype560.a(tsch-queue.o)
 .comment       0x0000000000000029       0x2a build/cooja/mtype560.a(tsch-timeslot-t)
 .comment       0x0000000000000029       0x2a build/cooja/mtype560.a(tsch-schedule.o)
 .comment       0x0000000000000029       0x2a build/cooja/mtype560.a(tsch-slot-opera)
 .comment       0x0000000000000029       0x2a build/cooja/mtype560.a(tsch-packet.o)
 .comment       0x0000000000000029       0x2a build/cooja/mtype560.a(tsch-security.o)
 .comment       0x0000000000000029       0x2a build/cooja/mtype560.a(tsch-rpl.o)
 .comment       0x0000000000000029       0x2a build/cooja/mtype560.a(tsch-adaptive-t)
 .comment       0x0000000000000029       0x2a build/cooja/mtype560.a(uipbuf.o)
 .comment       0x0000000000000029       0x2a build/cooja/mtype560.a(uip-icmp6.o)
 .comment       0x0000000000000029       0x2a build/cooja/mtype560.a(uip-packetqueue)
 .comment       0x0000000000000029       0x2a build/cooja/mtype560.a(uip-udp-packet.)
 .comment       0x0000000000000029       0x2a build/cooja/mtype560.a(rpl-icmp6.o)
 .comment       0x0000000000000029       0x2a build/cooja/mtype560.a(rpl-neighbor.o)
 .comment       0x0000000000000029       0x2a build/cooja/mtype560.a(rpl-dag.o)
 .comment       0x0000000000000029       0x2a build/cooja/mtype560.a(rpl-timers.o)
 .comment       0x0000000000000029       0x2a build/cooja/mtype560.a(rpl-ext-header.)
 .comment       0x0000000000000029       0x2a build/cooja/mtype560.a(rpl-nbr-policy.)
 .comment       0x0000000000000029       0x2a build/cooja/mtype560.a(rpl-mrhof.o)
 .comment       0x0000000000000029       0x2a build/cooja/mtype560.a(orchestra-rule-)
 .comment       0x0000000000000029       0x2a build/cooja/mtype560.a(orchestra-rule-)
 .comment       0x0000000000000029       0x2a build/cooja/mtype560.a(ccm-star.o)
 .comment       0x0000000000000029       0x2a build/cooja/mtype560.a(aes-128.o)
 .comment       0x0000000000000029       0x2a build/cooja/mtype560.a(frame802154e-ie)
 .comment       0x0000000000000029       0x2a /usr/lib/gcc/x86_64-linux-gnu/7/crtendS.o

.debug
 *(.debug)

.line
 *(.line)

.debug_srcinfo
 *(.debug_srcinfo)

.debug_sfnames
 *(.debug_sfnames)

.debug_aranges  0x0000000000000000     0x1180
 *(.debug_aranges)
 .debug_aranges
                0x0000000000000000       0x30 node.o
 .debug_aranges
                0x0000000000000030       0x30 build/cooja/mtype560.o
 .debug_aranges
                0x0000000000000060       0x30 build/cooja/mtype560.a(simEnvChange.o)
 .debug_aranges
                0x0000000000000090       0x30 build/cooja/mtype560.a(cooja_mt.o)
 .debug_aranges
                0x00000000000000c0       0x30 build/cooja/mtype560.a(cooja_mtarch.o)
 .debug_aranges
                0x00000000000000f0       0x30 build/cooja/mtype560.a(rtimer-arch.o)
 .debug_aranges
                0x0000000000000120       0x30 build/cooja/mtype560.a(beep.o)
 .debug_aranges
                0x0000000000000150       0x30 build/cooja/mtype560.a(leds-arch.o)
 .debug_aranges
                0x0000000000000180       0x30 build/cooja/mtype560.a(moteid.o)
 .debug_aranges
                0x00000000000001b0       0x30 build/cooja/mtype560.a(pir-sensor.o)
 .debug_aranges
                0x00000000000001e0       0x30 build/cooja/mtype560.a(rs232.o)
 .debug_aranges
                0x0000000000000210       0x30 build/cooja/mtype560.a(vib-sensor.o)
 .debug_aranges
                0x0000000000000240       0x30 build/cooja/mtype560.a(clock.o)
 .debug_aranges
                0x0000000000000270       0x30 build/cooja/mtype560.a(cooja-log.o)
 .debug_aranges
                0x00000000000002a0       0x30 build/cooja/mtype560.a(cfs-cooja.o)
 .debug_aranges
                0x00000000000002d0       0x30 build/cooja/mtype560.a(cooja-radio.o)
 .debug_aranges
                0x0000000000000300       0x30 build/cooja/mtype560.a(eeprom.o)
 .debug_aranges
                0x0000000000000330       0x30 build/cooja/mtype560.a(random.o)
 .debug_aranges
                0x0000000000000360       0x30 build/cooja/mtype560.a(sensors.o)
 .debug_aranges
                0x0000000000000390       0x30 build/cooja/mtype560.a(leds.o)
 .debug_aranges
                0x00000000000003c0       0x30 build/cooja/mtype560.a(gpio-hal-arch.o)
 .debug_aranges
                0x00000000000003f0       0x30 build/cooja/mtype560.a(buttons.o)
 .debug_aranges
                0x0000000000000420       0x30 build/cooja/mtype560.a(deployment.o)
 .debug_aranges
                0x0000000000000450       0x30 build/cooja/mtype560.a(contiki-main.o)
 .debug_aranges
                0x0000000000000480       0x30 build/cooja/mtype560.a(autostart.o)
 .debug_aranges
                0x00000000000004b0       0x30 build/cooja/mtype560.a(log.o)
 .debug_aranges
                0x00000000000004e0       0x30 build/cooja/mtype560.a(energest.o)
 .debug_aranges
                0x0000000000000510       0x30 build/cooja/mtype560.a(etimer.o)
 .debug_aranges
                0x0000000000000540       0x30 build/cooja/mtype560.a(node-id.o)
 .debug_aranges
                0x0000000000000570       0x30 build/cooja/mtype560.a(ctimer.o)
 .debug_aranges
                0x00000000000005a0       0x30 build/cooja/mtype560.a(process.o)
 .debug_aranges
                0x00000000000005d0       0x30 build/cooja/mtype560.a(rtimer.o)
 .debug_aranges
                0x0000000000000600       0x30 build/cooja/mtype560.a(timer.o)
 .debug_aranges
                0x0000000000000630       0x30 build/cooja/mtype560.a(list.o)
 .debug_aranges
                0x0000000000000660       0x30 build/cooja/mtype560.a(button-hal.o)
 .debug_aranges
                0x0000000000000690       0x30 build/cooja/mtype560.a(serial-line.o)
 .debug_aranges
                0x00000000000006c0       0x30 build/cooja/mtype560.a(gpio-hal.o)
 .debug_aranges
                0x00000000000006f0       0x30 build/cooja/mtype560.a(queuebuf.o)
 .debug_aranges
                0x0000000000000720       0x30 build/cooja/mtype560.a(packetbuf.o)
 .debug_aranges
                0x0000000000000750       0x30 build/cooja/mtype560.a(netstack.o)
 .debug_aranges
                0x0000000000000780       0x30 build/cooja/mtype560.a(linkaddr.o)
 .debug_aranges
                0x00000000000007b0       0x30 build/cooja/mtype560.a(tsch.o)
 .debug_aranges
                0x00000000000007e0       0x30 build/cooja/mtype560.a(uip-sr.o)
 .debug_aranges
                0x0000000000000810       0x30 build/cooja/mtype560.a(uip-ds6.o)
 .debug_aranges
                0x0000000000000840       0x30 build/cooja/mtype560.a(tcpip.o)
 .debug_aranges
                0x0000000000000870       0x30 build/cooja/mtype560.a(uip-ds6-route.o)
 .debug_aranges
                0x00000000000008a0       0x30 build/cooja/mtype560.a(uip-ds6-nbr.o)
 .debug_aranges
                0x00000000000008d0       0x30 build/cooja/mtype560.a(uip6.o)
 .debug_aranges
                0x0000000000000900       0x30 build/cooja/mtype560.a(uip-nd6.o)
 .debug_aranges
                0x0000000000000930       0x30 build/cooja/mtype560.a(simple-udp.o)
 .debug_aranges
                0x0000000000000960       0x30 build/cooja/mtype560.a(sicslowpan.o)
 .debug_aranges
                0x0000000000000990       0x30 build/cooja/mtype560.a(uiplib.o)
 .debug_aranges
                0x00000000000009c0       0x30 build/cooja/mtype560.a(rpl.o)
 .debug_aranges
                0x00000000000009f0       0x30 build/cooja/mtype560.a(rpl-dag-root.o)
 .debug_aranges
                0x0000000000000a20       0x30 build/cooja/mtype560.a(watchdog.o)
 .debug_aranges
                0x0000000000000a50       0x30 build/cooja/mtype560.a(int-master.o)
 .debug_aranges
                0x0000000000000a80       0x20 build/cooja/mtype560.a(cooja16.o)
 .debug_aranges
                0x0000000000000aa0       0x30 build/cooja/mtype560.a(simple-energest)
 .debug_aranges
                0x0000000000000ad0       0x30 build/cooja/mtype560.a(orchestra.o)
 .debug_aranges
                0x0000000000000b00       0x30 build/cooja/mtype560.a(orchestra-rule-)
 .debug_aranges
                0x0000000000000b30       0x30 build/cooja/mtype560.a(stimer.o)
 .debug_aranges
                0x0000000000000b60       0x30 build/cooja/mtype560.a(ringbufindex.o)
 .debug_aranges
                0x0000000000000b90       0x30 build/cooja/mtype560.a(memb.o)
 .debug_aranges
                0x0000000000000bc0       0x30 build/cooja/mtype560.a(ringbuf.o)
 .debug_aranges
                0x0000000000000bf0       0x30 build/cooja/mtype560.a(nbr-table.o)
 .debug_aranges
                0x0000000000000c20       0x30 build/cooja/mtype560.a(link-stats.o)
 .debug_aranges
                0x0000000000000c50       0x30 build/cooja/mtype560.a(mac-sequence.o)
 .debug_aranges
                0x0000000000000c80       0x30 build/cooja/mtype560.a(mac.o)
 .debug_aranges
                0x0000000000000cb0       0x30 build/cooja/mtype560.a(framer-802154.o)
 .debug_aranges
                0x0000000000000ce0       0x30 build/cooja/mtype560.a(frame802154.o)
 .debug_aranges
                0x0000000000000d10       0x30 build/cooja/mtype560.a(tsch-queue.o)
 .debug_aranges
                0x0000000000000d40       0x20 build/cooja/mtype560.a(tsch-timeslot-t)
 .debug_aranges
                0x0000000000000d60       0x30 build/cooja/mtype560.a(tsch-schedule.o)
 .debug_aranges
                0x0000000000000d90       0x30 build/cooja/mtype560.a(tsch-slot-opera)
 .debug_aranges
                0x0000000000000dc0       0x30 build/cooja/mtype560.a(tsch-packet.o)
 .debug_aranges
                0x0000000000000df0       0x30 build/cooja/mtype560.a(tsch-security.o)
 .debug_aranges
                0x0000000000000e20       0x30 build/cooja/mtype560.a(tsch-rpl.o)
 .debug_aranges
                0x0000000000000e50       0x30 build/cooja/mtype560.a(tsch-adaptive-t)
 .debug_aranges
                0x0000000000000e80       0x30 build/cooja/mtype560.a(uipbuf.o)
 .debug_aranges
                0x0000000000000eb0       0x30 build/cooja/mtype560.a(uip-icmp6.o)
 .debug_aranges
                0x0000000000000ee0       0x30 build/cooja/mtype560.a(uip-packetqueue)
 .debug_aranges
                0x0000000000000f10       0x30 build/cooja/mtype560.a(uip-udp-packet.)
 .debug_aranges
                0x0000000000000f40       0x30 build/cooja/mtype560.a(rpl-icmp6.o)
 .debug_aranges
                0x0000000000000f70       0x30 build/cooja/mtype560.a(rpl-neighbor.o)
 .debug_aranges
                0x0000000000000fa0       0x30 build/cooja/mtype560.a(rpl-dag.o)
 .debug_aranges
                0x0000000000000fd0       0x30 build/cooja/mtype560.a(rpl-timers.o)
 .debug_aranges
                0x0000000000001000       0x30 build/cooja/mtype560.a(rpl-ext-header.)
 .debug_aranges
                0x0000000000001030       0x30 build/cooja/mtype560.a(rpl-nbr-policy.)
 .debug_aranges
                0x0000000000001060       0x30 build/cooja/mtype560.a(rpl-mrhof.o)
 .debug_aranges
                0x0000000000001090       0x30 build/cooja/mtype560.a(orchestra-rule-)
 .debug_aranges
                0x00000000000010c0       0x30 build/cooja/mtype560.a(orchestra-rule-)
 .debug_aranges
                0x00000000000010f0       0x30 build/cooja/mtype560.a(ccm-star.o)
 .debug_aranges
                0x0000000000001120       0x30 build/cooja/mtype560.a(aes-128.o)
 .debug_aranges
                0x0000000000001150       0x30 build/cooja/mtype560.a(frame802154e-ie)

.debug_pubnames
 *(.debug_pubnames)

.debug_info     0x0000000000000000    0x631da
 *(.debug_info .gnu.linkonce.wi.*)
 .debug_info    0x0000000000000000     0x16b0 node.o
 .debug_info    0x00000000000016b0     0x50ed build/cooja/mtype560.o
 .debug_info    0x000000000000679d      0x545 build/cooja/mtype560.a(simEnvChange.o)
 .debug_info    0x0000000000006ce2      0x313 build/cooja/mtype560.a(cooja_mt.o)
 .debug_info    0x0000000000006ff5      0x625 build/cooja/mtype560.a(cooja_mtarch.o)
 .debug_info    0x000000000000761a      0x36c build/cooja/mtype560.a(rtimer-arch.o)
 .debug_info    0x0000000000007986      0x3af build/cooja/mtype560.a(beep.o)
 .debug_info    0x0000000000007d35      0x319 build/cooja/mtype560.a(leds-arch.o)
 .debug_info    0x000000000000804e      0x29c build/cooja/mtype560.a(moteid.o)
 .debug_info    0x00000000000082ea      0x3d6 build/cooja/mtype560.a(pir-sensor.o)
 .debug_info    0x00000000000086c0      0x682 build/cooja/mtype560.a(rs232.o)
 .debug_info    0x0000000000008d42      0x3d6 build/cooja/mtype560.a(vib-sensor.o)
 .debug_info    0x0000000000009118      0x2e6 build/cooja/mtype560.a(clock.o)
 .debug_info    0x00000000000093fe      0x74a build/cooja/mtype560.a(cooja-log.o)
 .debug_info    0x0000000000009b48      0x81c build/cooja/mtype560.a(cfs-cooja.o)
 .debug_info    0x000000000000a364     0x1541 build/cooja/mtype560.a(cooja-radio.o)
 .debug_info    0x000000000000b8a5      0x375 build/cooja/mtype560.a(eeprom.o)
 .debug_info    0x000000000000bc1a       0xc0 build/cooja/mtype560.a(random.o)
 .debug_info    0x000000000000bcda      0x45c build/cooja/mtype560.a(sensors.o)
 .debug_info    0x000000000000c136      0x427 build/cooja/mtype560.a(leds.o)
 .debug_info    0x000000000000c55d      0xd22 build/cooja/mtype560.a(gpio-hal-arch.o)
 .debug_info    0x000000000000d27f      0xd10 build/cooja/mtype560.a(buttons.o)
 .debug_info    0x000000000000df8f     0x1579 build/cooja/mtype560.a(deployment.o)
 .debug_info    0x000000000000f508     0x2075 build/cooja/mtype560.a(contiki-main.o)
 .debug_info    0x000000000001157d      0x250 build/cooja/mtype560.a(autostart.o)
 .debug_info    0x00000000000117cd      0xcc3 build/cooja/mtype560.a(log.o)
 .debug_info    0x0000000000012490      0x39b build/cooja/mtype560.a(energest.o)
 .debug_info    0x000000000001282b      0x5aa build/cooja/mtype560.a(etimer.o)
 .debug_info    0x0000000000012dd5      0x602 build/cooja/mtype560.a(node-id.o)
 .debug_info    0x00000000000133d7      0x56b build/cooja/mtype560.a(ctimer.o)
 .debug_info    0x0000000000013942      0x84e build/cooja/mtype560.a(process.o)
 .debug_info    0x0000000000014190      0x34c build/cooja/mtype560.a(rtimer.o)
 .debug_info    0x00000000000144dc      0x2fb build/cooja/mtype560.a(timer.o)
 .debug_info    0x00000000000147d7      0x551 build/cooja/mtype560.a(list.o)
 .debug_info    0x0000000000014d28      0x788 build/cooja/mtype560.a(button-hal.o)
 .debug_info    0x00000000000154b0      0x3ae build/cooja/mtype560.a(serial-line.o)
 .debug_info    0x000000000001585e      0xb2b build/cooja/mtype560.a(gpio-hal.o)
 .debug_info    0x0000000000016389     0x1635 build/cooja/mtype560.a(queuebuf.o)
 .debug_info    0x00000000000179be     0x1625 build/cooja/mtype560.a(packetbuf.o)
 .debug_info    0x0000000000018fe3      0x766 build/cooja/mtype560.a(netstack.o)
 .debug_info    0x0000000000019749      0x324 build/cooja/mtype560.a(linkaddr.o)
 .debug_info    0x0000000000019a6d     0x2fbd build/cooja/mtype560.a(tsch.o)
 .debug_info    0x000000000001ca2a     0x1683 build/cooja/mtype560.a(uip-sr.o)
 .debug_info    0x000000000001e0ad     0x174c build/cooja/mtype560.a(uip-ds6.o)
 .debug_info    0x000000000001f7f9     0x1a62 build/cooja/mtype560.a(tcpip.o)
 .debug_info    0x000000000002125b     0x16a8 build/cooja/mtype560.a(uip-ds6-route.o)
 .debug_info    0x0000000000022903     0x1899 build/cooja/mtype560.a(uip-ds6-nbr.o)
 .debug_info    0x000000000002419c     0x1bb1 build/cooja/mtype560.a(uip6.o)
 .debug_info    0x0000000000025d4d     0x14b7 build/cooja/mtype560.a(uip-nd6.o)
 .debug_info    0x0000000000027204     0x1505 build/cooja/mtype560.a(simple-udp.o)
 .debug_info    0x0000000000028709     0x2466 build/cooja/mtype560.a(sicslowpan.o)
 .debug_info    0x000000000002ab6f      0xb3a build/cooja/mtype560.a(uiplib.o)
 .debug_info    0x000000000002b6a9     0x1c9a build/cooja/mtype560.a(rpl.o)
 .debug_info    0x000000000002d343     0x1ad6 build/cooja/mtype560.a(rpl-dag-root.o)
 .debug_info    0x000000000002ee19      0x25b build/cooja/mtype560.a(watchdog.o)
 .debug_info    0x000000000002f074      0x2ac build/cooja/mtype560.a(int-master.o)
 .debug_info    0x000000000002f320      0x61b build/cooja/mtype560.a(cooja16.o)
 .debug_info    0x000000000002f93b      0xcf6 build/cooja/mtype560.a(simple-energest)
 .debug_info    0x0000000000030631     0x21e6 build/cooja/mtype560.a(orchestra.o)
 .debug_info    0x0000000000032817     0x2134 build/cooja/mtype560.a(orchestra-rule-)
 .debug_info    0x000000000003494b      0x31b build/cooja/mtype560.a(stimer.o)
 .debug_info    0x0000000000034c66      0x3d2 build/cooja/mtype560.a(ringbufindex.o)
 .debug_info    0x0000000000035038      0x36e build/cooja/mtype560.a(memb.o)
 .debug_info    0x00000000000353a6      0x339 build/cooja/mtype560.a(ringbuf.o)
 .debug_info    0x00000000000356df      0xf1d build/cooja/mtype560.a(nbr-table.o)
 .debug_info    0x00000000000365fc     0x11c8 build/cooja/mtype560.a(link-stats.o)
 .debug_info    0x00000000000377c4     0x1253 build/cooja/mtype560.a(mac-sequence.o)
 .debug_info    0x0000000000038a17      0x9aa build/cooja/mtype560.a(mac.o)
 .debug_info    0x00000000000393c1      0xd72 build/cooja/mtype560.a(framer-802154.o)
 .debug_info    0x000000000003a133      0xc5c build/cooja/mtype560.a(frame802154.o)
 .debug_info    0x000000000003ad8f     0x26d6 build/cooja/mtype560.a(tsch-queue.o)
 .debug_info    0x000000000003d465     0x1de1 build/cooja/mtype560.a(tsch-timeslot-t)
 .debug_info    0x000000000003f246     0x267d build/cooja/mtype560.a(tsch-schedule.o)
 .debug_info    0x00000000000418c3     0x30fa build/cooja/mtype560.a(tsch-slot-opera)
 .debug_info    0x00000000000449bd     0x26c3 build/cooja/mtype560.a(tsch-packet.o)
 .debug_info    0x0000000000047080     0x2509 build/cooja/mtype560.a(tsch-security.o)
 .debug_info    0x0000000000049589     0x1f2c build/cooja/mtype560.a(tsch-rpl.o)
 .debug_info    0x000000000004b4b5     0x20fb build/cooja/mtype560.a(tsch-adaptive-t)
 .debug_info    0x000000000004d5b0      0xad9 build/cooja/mtype560.a(uipbuf.o)
 .debug_info    0x000000000004e089     0x18ce build/cooja/mtype560.a(uip-icmp6.o)
 .debug_info    0x000000000004f957      0xb93 build/cooja/mtype560.a(uip-packetqueue)
 .debug_info    0x00000000000504ea      0x70e build/cooja/mtype560.a(uip-udp-packet.)
 .debug_info    0x0000000000050bf8     0x1e31 build/cooja/mtype560.a(rpl-icmp6.o)
 .debug_info    0x0000000000052a29     0x1c06 build/cooja/mtype560.a(rpl-neighbor.o)
 .debug_info    0x000000000005462f     0x1dbc build/cooja/mtype560.a(rpl-dag.o)
 .debug_info    0x00000000000563eb     0x1b41 build/cooja/mtype560.a(rpl-timers.o)
 .debug_info    0x0000000000057f2c     0x1fb6 build/cooja/mtype560.a(rpl-ext-header.)
 .debug_info    0x0000000000059ee2     0x1936 build/cooja/mtype560.a(rpl-nbr-policy.)
 .debug_info    0x000000000005b818     0x17fc build/cooja/mtype560.a(rpl-mrhof.o)
 .debug_info    0x000000000005d014     0x21a7 build/cooja/mtype560.a(orchestra-rule-)
 .debug_info    0x000000000005f1bb     0x1ff2 build/cooja/mtype560.a(orchestra-rule-)
 .debug_info    0x00000000000611ad      0x58f build/cooja/mtype560.a(ccm-star.o)
 .debug_info    0x000000000006173c      0x3b6 build/cooja/mtype560.a(aes-128.o)
 .debug_info    0x0000000000061af2     0x16e8 build/cooja/mtype560.a(frame802154e-ie)

.debug_abbrev   0x0000000000000000     0xd4a5
 *(.debug_abbrev)
 .debug_abbrev  0x0000000000000000      0x249 node.o
 .debug_abbrev  0x0000000000000249      0x31b build/cooja/mtype560.o
 .debug_abbrev  0x0000000000000564      0x167 build/cooja/mtype560.a(simEnvChange.o)
 .debug_abbrev  0x00000000000006cb      0x173 build/cooja/mtype560.a(cooja_mt.o)
 .debug_abbrev  0x000000000000083e      0x1bd build/cooja/mtype560.a(cooja_mtarch.o)
 .debug_abbrev  0x00000000000009fb      0x18f build/cooja/mtype560.a(rtimer-arch.o)
 .debug_abbrev  0x0000000000000b8a      0x18f build/cooja/mtype560.a(beep.o)
 .debug_abbrev  0x0000000000000d19      0x15c build/cooja/mtype560.a(leds-arch.o)
 .debug_abbrev  0x0000000000000e75      0x14a build/cooja/mtype560.a(moteid.o)
 .debug_abbrev  0x0000000000000fbf      0x19a build/cooja/mtype560.a(pir-sensor.o)
 .debug_abbrev  0x0000000000001159      0x1ed build/cooja/mtype560.a(rs232.o)
 .debug_abbrev  0x0000000000001346      0x19a build/cooja/mtype560.a(vib-sensor.o)
 .debug_abbrev  0x00000000000014e0      0x18f build/cooja/mtype560.a(clock.o)
 .debug_abbrev  0x000000000000166f      0x1ff build/cooja/mtype560.a(cooja-log.o)
 .debug_abbrev  0x000000000000186e      0x1eb build/cooja/mtype560.a(cfs-cooja.o)
 .debug_abbrev  0x0000000000001a59      0x3be build/cooja/mtype560.a(cooja-radio.o)
 .debug_abbrev  0x0000000000001e17      0x180 build/cooja/mtype560.a(eeprom.o)
 .debug_abbrev  0x0000000000001f97       0x6b build/cooja/mtype560.a(random.o)
 .debug_abbrev  0x0000000000002002      0x1cd build/cooja/mtype560.a(sensors.o)
 .debug_abbrev  0x00000000000021cf      0x183 build/cooja/mtype560.a(leds.o)
 .debug_abbrev  0x0000000000002352      0x24a build/cooja/mtype560.a(gpio-hal-arch.o)
 .debug_abbrev  0x000000000000259c      0x210 build/cooja/mtype560.a(buttons.o)
 .debug_abbrev  0x00000000000027ac      0x25a build/cooja/mtype560.a(deployment.o)
 .debug_abbrev  0x0000000000002a06      0x237 build/cooja/mtype560.a(contiki-main.o)
 .debug_abbrev  0x0000000000002c3d      0x12b build/cooja/mtype560.a(autostart.o)
 .debug_abbrev  0x0000000000002d68      0x21f build/cooja/mtype560.a(log.o)
 .debug_abbrev  0x0000000000002f87      0x18f build/cooja/mtype560.a(energest.o)
 .debug_abbrev  0x0000000000003116      0x229 build/cooja/mtype560.a(etimer.o)
 .debug_abbrev  0x000000000000333f      0x180 build/cooja/mtype560.a(node-id.o)
 .debug_abbrev  0x00000000000034bf      0x1be build/cooja/mtype560.a(ctimer.o)
 .debug_abbrev  0x000000000000367d      0x27b build/cooja/mtype560.a(process.o)
 .debug_abbrev  0x00000000000038f8      0x1a6 build/cooja/mtype560.a(rtimer.o)
 .debug_abbrev  0x0000000000003a9e      0x174 build/cooja/mtype560.a(timer.o)
 .debug_abbrev  0x0000000000003c12      0x1e2 build/cooja/mtype560.a(list.o)
 .debug_abbrev  0x0000000000003df4      0x256 build/cooja/mtype560.a(button-hal.o)
 .debug_abbrev  0x000000000000404a      0x1a0 build/cooja/mtype560.a(serial-line.o)
 .debug_abbrev  0x00000000000041ea      0x1ef build/cooja/mtype560.a(gpio-hal.o)
 .debug_abbrev  0x00000000000043d9      0x2c2 build/cooja/mtype560.a(queuebuf.o)
 .debug_abbrev  0x000000000000469b      0x2db build/cooja/mtype560.a(packetbuf.o)
 .debug_abbrev  0x0000000000004976      0x205 build/cooja/mtype560.a(netstack.o)
 .debug_abbrev  0x0000000000004b7b      0x177 build/cooja/mtype560.a(linkaddr.o)
 .debug_abbrev  0x0000000000004cf2      0x40a build/cooja/mtype560.a(tsch.o)
 .debug_abbrev  0x00000000000050fc      0x2b5 build/cooja/mtype560.a(uip-sr.o)
 .debug_abbrev  0x00000000000053b1      0x31c build/cooja/mtype560.a(uip-ds6.o)
 .debug_abbrev  0x00000000000056cd      0x3cd build/cooja/mtype560.a(tcpip.o)
 .debug_abbrev  0x0000000000005a9a      0x332 build/cooja/mtype560.a(uip-ds6-route.o)
 .debug_abbrev  0x0000000000005dcc      0x2ec build/cooja/mtype560.a(uip-ds6-nbr.o)
 .debug_abbrev  0x00000000000060b8      0x303 build/cooja/mtype560.a(uip6.o)
 .debug_abbrev  0x00000000000063bb      0x270 build/cooja/mtype560.a(uip-nd6.o)
 .debug_abbrev  0x000000000000662b      0x267 build/cooja/mtype560.a(simple-udp.o)
 .debug_abbrev  0x0000000000006892      0x355 build/cooja/mtype560.a(sicslowpan.o)
 .debug_abbrev  0x0000000000006be7      0x1fd build/cooja/mtype560.a(uiplib.o)
 .debug_abbrev  0x0000000000006de4      0x31b build/cooja/mtype560.a(rpl.o)
 .debug_abbrev  0x00000000000070ff      0x299 build/cooja/mtype560.a(rpl-dag-root.o)
 .debug_abbrev  0x0000000000007398      0x10b build/cooja/mtype560.a(watchdog.o)
 .debug_abbrev  0x00000000000074a3      0x170 build/cooja/mtype560.a(int-master.o)
 .debug_abbrev  0x0000000000007613      0x168 build/cooja/mtype560.a(cooja16.o)
 .debug_abbrev  0x000000000000777b      0x24e build/cooja/mtype560.a(simple-energest)
 .debug_abbrev  0x00000000000079c9      0x2bf build/cooja/mtype560.a(orchestra.o)
 .debug_abbrev  0x0000000000007c88      0x283 build/cooja/mtype560.a(orchestra-rule-)
 .debug_abbrev  0x0000000000007f0b      0x165 build/cooja/mtype560.a(stimer.o)
 .debug_abbrev  0x0000000000008070      0x176 build/cooja/mtype560.a(ringbufindex.o)
 .debug_abbrev  0x00000000000081e6      0x15a build/cooja/mtype560.a(memb.o)
 .debug_abbrev  0x0000000000008340      0x15a build/cooja/mtype560.a(ringbuf.o)
 .debug_abbrev  0x000000000000849a      0x2a6 build/cooja/mtype560.a(nbr-table.o)
 .debug_abbrev  0x0000000000008740      0x2d3 build/cooja/mtype560.a(link-stats.o)
 .debug_abbrev  0x0000000000008a13      0x228 build/cooja/mtype560.a(mac-sequence.o)
 .debug_abbrev  0x0000000000008c3b      0x1ae build/cooja/mtype560.a(mac.o)
 .debug_abbrev  0x0000000000008de9      0x22e build/cooja/mtype560.a(framer-802154.o)
 .debug_abbrev  0x0000000000009017      0x2cc build/cooja/mtype560.a(frame802154.o)
 .debug_abbrev  0x00000000000092e3      0x370 build/cooja/mtype560.a(tsch-queue.o)
 .debug_abbrev  0x0000000000009653      0x1ee build/cooja/mtype560.a(tsch-timeslot-t)
 .debug_abbrev  0x0000000000009841      0x32b build/cooja/mtype560.a(tsch-schedule.o)
 .debug_abbrev  0x0000000000009b6c      0x3b3 build/cooja/mtype560.a(tsch-slot-opera)
 .debug_abbrev  0x0000000000009f1f      0x326 build/cooja/mtype560.a(tsch-packet.o)
 .debug_abbrev  0x000000000000a245      0x2bf build/cooja/mtype560.a(tsch-security.o)
 .debug_abbrev  0x000000000000a504      0x2ae build/cooja/mtype560.a(tsch-rpl.o)
 .debug_abbrev  0x000000000000a7b2      0x2f6 build/cooja/mtype560.a(tsch-adaptive-t)
 .debug_abbrev  0x000000000000aaa8      0x224 build/cooja/mtype560.a(uipbuf.o)
 .debug_abbrev  0x000000000000accc      0x2c7 build/cooja/mtype560.a(uip-icmp6.o)
 .debug_abbrev  0x000000000000af93      0x254 build/cooja/mtype560.a(uip-packetqueue)
 .debug_abbrev  0x000000000000b1e7      0x1cf build/cooja/mtype560.a(uip-udp-packet.)
 .debug_abbrev  0x000000000000b3b6      0x368 build/cooja/mtype560.a(rpl-icmp6.o)
 .debug_abbrev  0x000000000000b71e      0x375 build/cooja/mtype560.a(rpl-neighbor.o)
 .debug_abbrev  0x000000000000ba93      0x3d4 build/cooja/mtype560.a(rpl-dag.o)
 .debug_abbrev  0x000000000000be67      0x32c build/cooja/mtype560.a(rpl-timers.o)
 .debug_abbrev  0x000000000000c193      0x313 build/cooja/mtype560.a(rpl-ext-header.)
 .debug_abbrev  0x000000000000c4a6      0x292 build/cooja/mtype560.a(rpl-nbr-policy.)
 .debug_abbrev  0x000000000000c738      0x283 build/cooja/mtype560.a(rpl-mrhof.o)
 .debug_abbrev  0x000000000000c9bb      0x2bb build/cooja/mtype560.a(orchestra-rule-)
 .debug_abbrev  0x000000000000cc76      0x240 build/cooja/mtype560.a(orchestra-rule-)
 .debug_abbrev  0x000000000000ceb6      0x19a build/cooja/mtype560.a(ccm-star.o)
 .debug_abbrev  0x000000000000d050      0x184 build/cooja/mtype560.a(aes-128.o)
 .debug_abbrev  0x000000000000d1d4      0x2d1 build/cooja/mtype560.a(frame802154e-ie)

.debug_line     0x0000000000000000    0x15e53
 *(.debug_line .debug_line.* .debug_line_end)
 .debug_line    0x0000000000000000      0x46c node.o
 .debug_line    0x000000000000046c      0x6a7 build/cooja/mtype560.o
 .debug_line    0x0000000000000b13      0x211 build/cooja/mtype560.a(simEnvChange.o)
 .debug_line    0x0000000000000d24      0x1cd build/cooja/mtype560.a(cooja_mt.o)
 .debug_line    0x0000000000000ef1      0x24d build/cooja/mtype560.a(cooja_mtarch.o)
 .debug_line    0x000000000000113e      0x1c5 build/cooja/mtype560.a(rtimer-arch.o)
 .debug_line    0x0000000000001303      0x194 build/cooja/mtype560.a(beep.o)
 .debug_line    0x0000000000001497      0x1b2 build/cooja/mtype560.a(leds-arch.o)
 .debug_line    0x0000000000001649      0x1ae build/cooja/mtype560.a(moteid.o)
 .debug_line    0x00000000000017f7      0x1ec build/cooja/mtype560.a(pir-sensor.o)
 .debug_line    0x00000000000019e3      0x266 build/cooja/mtype560.a(rs232.o)
 .debug_line    0x0000000000001c49      0x1ec build/cooja/mtype560.a(vib-sensor.o)
 .debug_line    0x0000000000001e35      0x186 build/cooja/mtype560.a(clock.o)
 .debug_line    0x0000000000001fbb      0x252 build/cooja/mtype560.a(cooja-log.o)
 .debug_line    0x000000000000220d      0x276 build/cooja/mtype560.a(cfs-cooja.o)
 .debug_line    0x0000000000002483      0x409 build/cooja/mtype560.a(cooja-radio.o)
 .debug_line    0x000000000000288c      0x1bb build/cooja/mtype560.a(eeprom.o)
 .debug_line    0x0000000000002a47       0x51 build/cooja/mtype560.a(random.o)
 .debug_line    0x0000000000002a98      0x217 build/cooja/mtype560.a(sensors.o)
 .debug_line    0x0000000000002caf      0x230 build/cooja/mtype560.a(leds.o)
 .debug_line    0x0000000000002edf      0x323 build/cooja/mtype560.a(gpio-hal-arch.o)
 .debug_line    0x0000000000003202      0x2bc build/cooja/mtype560.a(buttons.o)
 .debug_line    0x00000000000034be      0x3ea build/cooja/mtype560.a(deployment.o)
 .debug_line    0x00000000000038a8      0x5d6 build/cooja/mtype560.a(contiki-main.o)
 .debug_line    0x0000000000003e7e      0x186 build/cooja/mtype560.a(autostart.o)
 .debug_line    0x0000000000004004      0x2c6 build/cooja/mtype560.a(log.o)
 .debug_line    0x00000000000042ca      0x1c1 build/cooja/mtype560.a(energest.o)
 .debug_line    0x000000000000448b      0x25a build/cooja/mtype560.a(etimer.o)
 .debug_line    0x00000000000046e5      0x1ae build/cooja/mtype560.a(node-id.o)
 .debug_line    0x0000000000004893      0x227 build/cooja/mtype560.a(ctimer.o)
 .debug_line    0x0000000000004aba      0x2e3 build/cooja/mtype560.a(process.o)
 .debug_line    0x0000000000004d9d      0x181 build/cooja/mtype560.a(rtimer.o)
 .debug_line    0x0000000000004f1e      0x17f build/cooja/mtype560.a(timer.o)
 .debug_line    0x000000000000509d      0x236 build/cooja/mtype560.a(list.o)
 .debug_line    0x00000000000052d3      0x2c4 build/cooja/mtype560.a(button-hal.o)
 .debug_line    0x0000000000005597      0x20a build/cooja/mtype560.a(serial-line.o)
 .debug_line    0x00000000000057a1      0x279 build/cooja/mtype560.a(gpio-hal.o)
 .debug_line    0x0000000000005a1a      0x3a6 build/cooja/mtype560.a(queuebuf.o)
 .debug_line    0x0000000000005dc0      0x3e9 build/cooja/mtype560.a(packetbuf.o)
 .debug_line    0x00000000000061a9      0x259 build/cooja/mtype560.a(netstack.o)
 .debug_line    0x0000000000006402      0x181 build/cooja/mtype560.a(linkaddr.o)
 .debug_line    0x0000000000006583      0xb25 build/cooja/mtype560.a(tsch.o)
 .debug_line    0x00000000000070a8      0x4d4 build/cooja/mtype560.a(uip-sr.o)
 .debug_line    0x000000000000757c      0x593 build/cooja/mtype560.a(uip-ds6.o)
 .debug_line    0x0000000000007b0f      0x4db build/cooja/mtype560.a(tcpip.o)
 .debug_line    0x0000000000007fea      0x4a2 build/cooja/mtype560.a(uip-ds6-route.o)
 .debug_line    0x000000000000848c      0x4cb build/cooja/mtype560.a(uip-ds6-nbr.o)
 .debug_line    0x0000000000008957      0x921 build/cooja/mtype560.a(uip6.o)
 .debug_line    0x0000000000009278      0x577 build/cooja/mtype560.a(uip-nd6.o)
 .debug_line    0x00000000000097ef      0x3c1 build/cooja/mtype560.a(simple-udp.o)
 .debug_line    0x0000000000009bb0      0xbf6 build/cooja/mtype560.a(sicslowpan.o)
 .debug_line    0x000000000000a7a6      0x345 build/cooja/mtype560.a(uiplib.o)
 .debug_line    0x000000000000aaeb      0x534 build/cooja/mtype560.a(rpl.o)
 .debug_line    0x000000000000b01f      0x4b8 build/cooja/mtype560.a(rpl-dag-root.o)
 .debug_line    0x000000000000b4d7      0x185 build/cooja/mtype560.a(watchdog.o)
 .debug_line    0x000000000000b65c      0x178 build/cooja/mtype560.a(int-master.o)
 .debug_line    0x000000000000b7d4      0x1d5 build/cooja/mtype560.a(cooja16.o)
 .debug_line    0x000000000000b9a9      0x2db build/cooja/mtype560.a(simple-energest)
 .debug_line    0x000000000000bc84      0x52a build/cooja/mtype560.a(orchestra.o)
 .debug_line    0x000000000000c1ae      0x519 build/cooja/mtype560.a(orchestra-rule-)
 .debug_line    0x000000000000c6c7      0x186 build/cooja/mtype560.a(stimer.o)
 .debug_line    0x000000000000c84d      0x1b9 build/cooja/mtype560.a(ringbufindex.o)
 .debug_line    0x000000000000ca06      0x1e1 build/cooja/mtype560.a(memb.o)
 .debug_line    0x000000000000cbe7      0x1a1 build/cooja/mtype560.a(ringbuf.o)
 .debug_line    0x000000000000cd88      0x3f4 build/cooja/mtype560.a(nbr-table.o)
 .debug_line    0x000000000000d17c      0x3a0 build/cooja/mtype560.a(link-stats.o)
 .debug_line    0x000000000000d51c      0x396 build/cooja/mtype560.a(mac-sequence.o)
 .debug_line    0x000000000000d8b2      0x22e build/cooja/mtype560.a(mac.o)
 .debug_line    0x000000000000dae0      0x31a build/cooja/mtype560.a(framer-802154.o)
 .debug_line    0x000000000000ddfa      0x3fa build/cooja/mtype560.a(frame802154.o)
 .debug_line    0x000000000000e1f4      0x678 build/cooja/mtype560.a(tsch-queue.o)
 .debug_line    0x000000000000e86c      0x44d build/cooja/mtype560.a(tsch-timeslot-t)
 .debug_line    0x000000000000ecb9      0x6f1 build/cooja/mtype560.a(tsch-schedule.o)
 .debug_line    0x000000000000f3aa      0x97b build/cooja/mtype560.a(tsch-slot-opera)
 .debug_line    0x000000000000fd25      0x5f7 build/cooja/mtype560.a(tsch-packet.o)
 .debug_line    0x000000000001031c      0x5a8 build/cooja/mtype560.a(tsch-security.o)
 .debug_line    0x00000000000108c4      0x48e build/cooja/mtype560.a(tsch-rpl.o)
 .debug_line    0x0000000000010d52      0x4e2 build/cooja/mtype560.a(tsch-adaptive-t)
 .debug_line    0x0000000000011234      0x28f build/cooja/mtype560.a(uipbuf.o)
 .debug_line    0x00000000000114c3      0x599 build/cooja/mtype560.a(uip-icmp6.o)
 .debug_line    0x0000000000011a5c      0x29b build/cooja/mtype560.a(uip-packetqueue)
 .debug_line    0x0000000000011cf7      0x1f8 build/cooja/mtype560.a(uip-udp-packet.)
 .debug_line    0x0000000000011eef      0x8db build/cooja/mtype560.a(rpl-icmp6.o)
 .debug_line    0x00000000000127ca      0x609 build/cooja/mtype560.a(rpl-neighbor.o)
 .debug_line    0x0000000000012dd3      0x7b2 build/cooja/mtype560.a(rpl-dag.o)
 .debug_line    0x0000000000013585      0x562 build/cooja/mtype560.a(rpl-timers.o)
 .debug_line    0x0000000000013ae7      0x729 build/cooja/mtype560.a(rpl-ext-header.)
 .debug_line    0x0000000000014210      0x3cf build/cooja/mtype560.a(rpl-nbr-policy.)
 .debug_line    0x00000000000145df      0x478 build/cooja/mtype560.a(rpl-mrhof.o)
 .debug_line    0x0000000000014a57      0x51f build/cooja/mtype560.a(orchestra-rule-)
 .debug_line    0x0000000000014f76      0x4a5 build/cooja/mtype560.a(orchestra-rule-)
 .debug_line    0x000000000001541b      0x271 build/cooja/mtype560.a(ccm-star.o)
 .debug_line    0x000000000001568c      0x28a build/cooja/mtype560.a(aes-128.o)
 .debug_line    0x0000000000015916      0x53d build/cooja/mtype560.a(frame802154e-ie)

.debug_frame
 *(.debug_frame)

.debug_str      0x0000000000000000     0xac60
 *(.debug_str)
 .debug_str     0x0000000000000000      0xcd6 node.o
                                        0xf7b (size before relaxing)
 .debug_str     0x0000000000000cd6     0x2088 build/cooja/mtype560.o
                                       0x310f (size before relaxing)
 .debug_str     0x0000000000002d5e       0x30 build/cooja/mtype560.a(simEnvChange.o)
                                        0x460 (size before relaxing)
 .debug_str     0x0000000000002d8e       0x58 build/cooja/mtype560.a(cooja_mt.o)
                                        0x2b6 (size before relaxing)
 .debug_str     0x0000000000002de6       0x97 build/cooja/mtype560.a(cooja_mtarch.o)
                                        0x4d3 (size before relaxing)
 .debug_str     0x0000000000002e7d      0x124 build/cooja/mtype560.a(rtimer-arch.o)
                                        0x37d (size before relaxing)
 .debug_str     0x0000000000002fa1       0xc6 build/cooja/mtype560.a(beep.o)
                                        0x31e (size before relaxing)
 .debug_str     0x0000000000003067       0x9e build/cooja/mtype560.a(leds-arch.o)
                                        0x330 (size before relaxing)
 .debug_str     0x0000000000003105       0x49 build/cooja/mtype560.a(moteid.o)
                                        0x2e1 (size before relaxing)
 .debug_str     0x000000000000314e       0x57 build/cooja/mtype560.a(pir-sensor.o)
                                        0x336 (size before relaxing)
 .debug_str     0x00000000000031a5       0xc3 build/cooja/mtype560.a(rs232.o)
                                        0x596 (size before relaxing)
 .debug_str     0x0000000000003268       0x57 build/cooja/mtype560.a(vib-sensor.o)
                                        0x336 (size before relaxing)
 .debug_str     0x00000000000032bf       0x64 build/cooja/mtype560.a(clock.o)
                                        0x2f1 (size before relaxing)
 .debug_str     0x0000000000003323       0xfa build/cooja/mtype560.a(cooja-log.o)
                                        0x5b8 (size before relaxing)
 .debug_str     0x000000000000341d      0x10e build/cooja/mtype560.a(cfs-cooja.o)
                                        0x581 (size before relaxing)
 .debug_str     0x000000000000352b      0x7ce build/cooja/mtype560.a(cooja-radio.o)
                                       0x111a (size before relaxing)
 .debug_str     0x0000000000003cf9       0x9b build/cooja/mtype560.a(eeprom.o)
                                        0x32e (size before relaxing)
 .debug_str     0x0000000000003d94       0x36 build/cooja/mtype560.a(random.o)
                                        0x157 (size before relaxing)
 .debug_str     0x0000000000003dca       0x8e build/cooja/mtype560.a(sensors.o)
                                        0x329 (size before relaxing)
 .debug_str     0x0000000000003e58       0x8d build/cooja/mtype560.a(leds.o)
                                        0x2f9 (size before relaxing)
 .debug_str     0x0000000000003ee5      0x2a8 build/cooja/mtype560.a(gpio-hal-arch.o)
                                        0xa1a (size before relaxing)
 .debug_str     0x000000000000418d       0xf7 build/cooja/mtype560.a(buttons.o)
                                        0x9f3 (size before relaxing)
 .debug_str     0x0000000000004284       0xed build/cooja/mtype560.a(deployment.o)
                                        0xe1f (size before relaxing)
 .debug_str     0x0000000000004371      0x284 build/cooja/mtype560.a(contiki-main.o)
                                       0x1af2 (size before relaxing)
 .debug_str     0x00000000000045f5       0x3b build/cooja/mtype560.a(autostart.o)
                                        0x255 (size before relaxing)
 .debug_str     0x0000000000004630       0xb3 build/cooja/mtype560.a(log.o)
                                        0x83c (size before relaxing)
 .debug_str     0x00000000000046e3       0x55 build/cooja/mtype560.a(energest.o)
                                        0x37e (size before relaxing)
 .debug_str     0x0000000000004738      0x153 build/cooja/mtype560.a(etimer.o)
                                        0x39d (size before relaxing)
 .debug_str     0x000000000000488b       0x27 build/cooja/mtype560.a(node-id.o)
                                        0x473 (size before relaxing)
 .debug_str     0x00000000000048b2       0xc6 build/cooja/mtype560.a(ctimer.o)
                                        0x339 (size before relaxing)
 .debug_str     0x0000000000004978      0x14a build/cooja/mtype560.a(process.o)
                                        0x54c (size before relaxing)
 .debug_str     0x0000000000004ac2       0xaa build/cooja/mtype560.a(rtimer.o)
                                        0x2f8 (size before relaxing)
 .debug_str     0x0000000000004b6c       0x18 build/cooja/mtype560.a(timer.o)
                                        0x284 (size before relaxing)
 .debug_str     0x0000000000004b84       0xb7 build/cooja/mtype560.a(list.o)
                                        0x2e3 (size before relaxing)
 .debug_str     0x0000000000004c3b      0x197 build/cooja/mtype560.a(button-hal.o)
                                        0x57a (size before relaxing)
 .debug_str     0x0000000000004dd2       0x83 build/cooja/mtype560.a(serial-line.o)
                                        0x2fc (size before relaxing)
 .debug_str     0x0000000000004e55       0xfd build/cooja/mtype560.a(gpio-hal.o)
                                        0x8df (size before relaxing)
 .debug_str     0x0000000000004f52      0x1be build/cooja/mtype560.a(queuebuf.o)
                                        0xf29 (size before relaxing)
 .debug_str     0x0000000000005110      0x1b7 build/cooja/mtype560.a(packetbuf.o)
                                        0xf5e (size before relaxing)
 .debug_str     0x00000000000052c7      0x16a build/cooja/mtype560.a(netstack.o)
                                        0x5b5 (size before relaxing)
 .debug_str     0x0000000000005431       0x53 build/cooja/mtype560.a(linkaddr.o)
                                        0x2ae (size before relaxing)
 .debug_str     0x0000000000005484      0x826 build/cooja/mtype560.a(tsch.o)
                                       0x257c (size before relaxing)
 .debug_str     0x0000000000005caa      0x18c build/cooja/mtype560.a(uip-sr.o)
                                        0xe92 (size before relaxing)
 .debug_str     0x0000000000005e36      0x2ea build/cooja/mtype560.a(uip-ds6.o)
                                        0xea6 (size before relaxing)
 .debug_str     0x0000000000006120      0x279 build/cooja/mtype560.a(tcpip.o)
                                       0x11af (size before relaxing)
 .debug_str     0x0000000000006399      0x225 build/cooja/mtype560.a(uip-ds6-route.o)
                                        0xf19 (size before relaxing)
 .debug_str     0x00000000000065be      0x1c5 build/cooja/mtype560.a(uip-ds6-nbr.o)
                                       0x1146 (size before relaxing)
 .debug_str     0x0000000000006783      0x211 build/cooja/mtype560.a(uip6.o)
                                       0x1109 (size before relaxing)
 .debug_str     0x0000000000006994      0x120 build/cooja/mtype560.a(uip-nd6.o)
                                        0xead (size before relaxing)
 .debug_str     0x0000000000006ab4       0xac build/cooja/mtype560.a(simple-udp.o)
                                        0xd10 (size before relaxing)
 .debug_str     0x0000000000006b60      0x598 build/cooja/mtype560.a(sicslowpan.o)
                                       0x17d9 (size before relaxing)
 .debug_str     0x00000000000070f8       0x93 build/cooja/mtype560.a(uiplib.o)
                                        0x7f3 (size before relaxing)
 .debug_str     0x000000000000718b      0x122 build/cooja/mtype560.a(rpl.o)
                                       0x1386 (size before relaxing)
 .debug_str     0x00000000000072ad       0xa4 build/cooja/mtype560.a(rpl-dag-root.o)
                                       0x1316 (size before relaxing)
 .debug_str     0x0000000000007351       0x79 build/cooja/mtype560.a(watchdog.o)
                                        0x289 (size before relaxing)
 .debug_str     0x00000000000073ca       0x8b build/cooja/mtype560.a(int-master.o)
                                        0x2d0 (size before relaxing)
 .debug_str     0x0000000000007455       0x16 build/cooja/mtype560.a(cooja16.o)
                                        0x47c (size before relaxing)
 .debug_str     0x000000000000746b      0x153 build/cooja/mtype560.a(simple-energest)
                                        0xa14 (size before relaxing)
 .debug_str     0x00000000000075be      0x121 build/cooja/mtype560.a(orchestra.o)
                                       0x1c9f (size before relaxing)
 .debug_str     0x00000000000076df       0x73 build/cooja/mtype560.a(orchestra-rule-)
                                       0x1b9c (size before relaxing)
 .debug_str     0x0000000000007752       0x6f build/cooja/mtype560.a(stimer.o)
                                        0x295 (size before relaxing)
 .debug_str     0x00000000000077c1       0xcc build/cooja/mtype560.a(ringbufindex.o)
                                        0x303 (size before relaxing)
 .debug_str     0x000000000000788d       0x5d build/cooja/mtype560.a(memb.o)
                                        0x282 (size before relaxing)
 .debug_str     0x00000000000078ea       0x5d build/cooja/mtype560.a(ringbuf.o)
                                        0x29c (size before relaxing)
 .debug_str     0x0000000000007947      0x268 build/cooja/mtype560.a(nbr-table.o)
                                        0x877 (size before relaxing)
 .debug_str     0x0000000000007baf      0x12c build/cooja/mtype560.a(link-stats.o)
                                        0xe9e (size before relaxing)
 .debug_str     0x0000000000007cdb       0x69 build/cooja/mtype560.a(mac-sequence.o)
                                        0xdb8 (size before relaxing)
 .debug_str     0x0000000000007d44       0x38 build/cooja/mtype560.a(mac.o)
                                        0x7bb (size before relaxing)
 .debug_str     0x0000000000007d7c       0x82 build/cooja/mtype560.a(framer-802154.o)
                                        0xc0d (size before relaxing)
 .debug_str     0x0000000000007dfe      0x1f5 build/cooja/mtype560.a(frame802154.o)
                                        0x857 (size before relaxing)
 .debug_str     0x0000000000007ff3      0x3ac build/cooja/mtype560.a(tsch-queue.o)
                                       0x1f22 (size before relaxing)
 .debug_str     0x000000000000839f       0x30 build/cooja/mtype560.a(tsch-timeslot-t)
                                       0x1820 (size before relaxing)
 .debug_str     0x00000000000083cf      0x351 build/cooja/mtype560.a(tsch-schedule.o)
                                       0x1b98 (size before relaxing)
 .debug_str     0x0000000000008720      0x5e8 build/cooja/mtype560.a(tsch-slot-opera)
                                       0x2775 (size before relaxing)
 .debug_str     0x0000000000008d08      0x180 build/cooja/mtype560.a(tsch-packet.o)
                                       0x1f27 (size before relaxing)
 .debug_str     0x0000000000008e88      0x124 build/cooja/mtype560.a(tsch-security.o)
                                       0x1ccb (size before relaxing)
 .debug_str     0x0000000000008fac      0x101 build/cooja/mtype560.a(tsch-rpl.o)
                                       0x19f4 (size before relaxing)
 .debug_str     0x00000000000090ad      0x1df build/cooja/mtype560.a(tsch-adaptive-t)
                                       0x1a36 (size before relaxing)
 .debug_str     0x000000000000928c      0x1b2 build/cooja/mtype560.a(uipbuf.o)
                                        0x731 (size before relaxing)
 .debug_str     0x000000000000943e      0x1f0 build/cooja/mtype560.a(uip-icmp6.o)
                                       0x10e1 (size before relaxing)
 .debug_str     0x000000000000962e       0xf6 build/cooja/mtype560.a(uip-packetqueue)
                                        0x7c7 (size before relaxing)
 .debug_str     0x0000000000009724       0x6e build/cooja/mtype560.a(uip-udp-packet.)
                                        0x4e2 (size before relaxing)
 .debug_str     0x0000000000009792      0x1d2 build/cooja/mtype560.a(rpl-icmp6.o)
                                       0x15c0 (size before relaxing)
 .debug_str     0x0000000000009964      0x283 build/cooja/mtype560.a(rpl-neighbor.o)
                                       0x1309 (size before relaxing)
 .debug_str     0x0000000000009be7      0x2db build/cooja/mtype560.a(rpl-dag.o)
                                       0x1439 (size before relaxing)
 .debug_str     0x0000000000009ec2      0x316 build/cooja/mtype560.a(rpl-timers.o)
                                       0x1335 (size before relaxing)
 .debug_str     0x000000000000a1d8      0x1be build/cooja/mtype560.a(rpl-ext-header.)
                                       0x174e (size before relaxing)
 .debug_str     0x000000000000a396       0x9e build/cooja/mtype560.a(rpl-nbr-policy.)
                                       0x12d0 (size before relaxing)
 .debug_str     0x000000000000a434       0xc2 build/cooja/mtype560.a(rpl-mrhof.o)
                                       0x1098 (size before relaxing)
 .debug_str     0x000000000000a4f6       0x86 build/cooja/mtype560.a(orchestra-rule-)
                                       0x1bd9 (size before relaxing)
 .debug_str     0x000000000000a57c       0x49 build/cooja/mtype560.a(orchestra-rule-)
                                       0x1985 (size before relaxing)
 .debug_str     0x000000000000a5c5       0x40 build/cooja/mtype560.a(ccm-star.o)
                                        0x2db (size before relaxing)
 .debug_str     0x000000000000a605       0x5d build/cooja/mtype560.a(aes-128.o)
                                        0x292 (size before relaxing)
 .debug_str     0x000000000000a662      0x5fe build/cooja/mtype560.a(frame802154e-ie)
                                       0x1227 (size before relaxing)

.debug_loc
 *(.debug_loc)

.debug_macinfo
 *(.debug_macinfo)

.debug_weaknames
 *(.debug_weaknames)

.debug_funcnames
 *(.debug_funcnames)

.debug_typenames
 *(.debug_typenames)

.debug_varnames
 *(.debug_varnames)

.debug_pubtypes
 *(.debug_pubtypes)

.debug_ranges   0x0000000000000000      0x2e0
 *(.debug_ranges)
 .debug_ranges  0x0000000000000000       0x30 build/cooja/mtype560.a(etimer.o)
 .debug_ranges  0x0000000000000030       0xc0 build/cooja/mtype560.a(tsch.o)
 .debug_ranges  0x00000000000000f0       0x30 build/cooja/mtype560.a(tcpip.o)
 .debug_ranges  0x0000000000000120       0x50 build/cooja/mtype560.a(uip-nd6.o)
 .debug_ranges  0x0000000000000170       0x90 build/cooja/mtype560.a(sicslowpan.o)
 .debug_ranges  0x0000000000000200       0x60 build/cooja/mtype560.a(nbr-table.o)
 .debug_ranges  0x0000000000000260       0x80 build/cooja/mtype560.a(tsch-slot-opera)

.debug_macro
 *(.debug_macro)

.debug_addr
 *(.debug_addr)

.gnu.attributes
 *(.gnu.attributes)

/DISCARD/
 *(.note.GNU-stack)
 *(.gnu_debuglink)
 *(.gnu.lto_*)
OUTPUT(build/cooja/mtype560.cooja elf64-x86-64)
