Archive member included to satisfy reference by file (symbol)

build/cooja/mtype580.a(simEnvChange.o)
                              build/cooja/mtype580.o (simDontFallAsleep)
build/cooja/mtype580.a(cooja_mt.o)
                              build/cooja/mtype580.o (cooja_mt_start)
build/cooja/mtype580.a(cooja_mtarch.o)
                              build/cooja/mtype580.a(cooja_mt.o) (cooja_mtarch_start)
build/cooja/mtype580.a(rtimer-arch.o)
                              build/cooja/mtype580.o (rtimer_arch_check)
build/cooja/mtype580.a(beep.o)
                              build/cooja/mtype580.o (beep_interface)
build/cooja/mtype580.a(leds-arch.o)
                              build/cooja/mtype580.o (leds_interface)
build/cooja/mtype580.a(moteid.o)
                              build/cooja/mtype580.o (moteid_interface)
build/cooja/mtype580.a(pir-sensor.o)
                              build/cooja/mtype580.o (pir_interface)
build/cooja/mtype580.a(rs232.o)
                              build/cooja/mtype580.o (rs232_interface)
build/cooja/mtype580.a(vib-sensor.o)
                              build/cooja/mtype580.o (vib_interface)
build/cooja/mtype580.a(clock.o)
                              build/cooja/mtype580.o (clock_interface)
build/cooja/mtype580.a(cooja-log.o)
                              build/cooja/mtype580.o (simlog_interface)
build/cooja/mtype580.a(cfs-cooja.o)
                              build/cooja/mtype580.o (cfs_interface)
build/cooja/mtype580.a(cooja-radio.o)
                              build/cooja/mtype580.o (radio_interface)
build/cooja/mtype580.a(eeprom.o)
                              build/cooja/mtype580.o (eeprom_interface)
build/cooja/mtype580.a(random.o)
                              build/cooja/mtype580.a(moteid.o) (random_init)
build/cooja/mtype580.a(sensors.o)
                              build/cooja/mtype580.a(pir-sensor.o) (sensors_changed)
build/cooja/mtype580.a(leds.o)
                              build/cooja/mtype580.a(leds-arch.o) (leds_get)
build/cooja/mtype580.a(gpio-hal-arch.o)
                              build/cooja/mtype580.a(leds-arch.o) (gpio_hal_arch_register_pin_callback)
build/cooja/mtype580.a(buttons.o)
                              build/cooja/mtype580.o (button_interface)
build/cooja/mtype580.a(deployment.o)
                              node.o (deployment_node_count)
build/cooja/mtype580.a(contiki-main.o)
                              build/cooja/mtype580.o (main)
build/cooja/mtype580.a(autostart.o)
                              build/cooja/mtype580.a(contiki-main.o) (autostart_start)
build/cooja/mtype580.a(log.o)
                              build/cooja/mtype580.a(contiki-main.o) (curr_log_level_main)
build/cooja/mtype580.a(energest.o)
                              build/cooja/mtype580.a(cooja-radio.o) (energest_total_time)
build/cooja/mtype580.a(etimer.o)
                              build/cooja/mtype580.a(contiki-main.o) (etimer_process)
build/cooja/mtype580.a(node-id.o)
                              node.o (node_id)
build/cooja/mtype580.a(ctimer.o)
                              build/cooja/mtype580.a(contiki-main.o) (ctimer_init)
build/cooja/mtype580.a(process.o)
                              build/cooja/mtype580.a(etimer.o) (process_current)
build/cooja/mtype580.a(rtimer.o)
                              build/cooja/mtype580.a(contiki-main.o) (rtimer_init)
build/cooja/mtype580.a(timer.o)
                              build/cooja/mtype580.a(etimer.o) (timer_set)
build/cooja/mtype580.a(list.o)
                              build/cooja/mtype580.a(ctimer.o) (list_init)
build/cooja/mtype580.a(button-hal.o)
                              build/cooja/mtype580.o (button_hal_init)
build/cooja/mtype580.a(serial-line.o)
                              build/cooja/mtype580.a(rs232.o) (serial_line_input_byte)
build/cooja/mtype580.a(gpio-hal.o)
                              build/cooja/mtype580.a(button-hal.o) (gpio_hal_register_handler)
build/cooja/mtype580.a(queuebuf.o)
                              build/cooja/mtype580.a(contiki-main.o) (queuebuf_init)
build/cooja/mtype580.a(packetbuf.o)
                              build/cooja/mtype580.a(cooja-radio.o) (packetbuf_clear)
build/cooja/mtype580.a(netstack.o)
                              build/cooja/mtype580.a(contiki-main.o) (netstack_init)
build/cooja/mtype580.a(linkaddr.o)
                              build/cooja/mtype580.a(deployment.o) (linkaddr_node_addr)
build/cooja/mtype580.a(tsch.o)
                              build/cooja/mtype580.a(cooja-radio.o) (tschmac_driver)
build/cooja/mtype580.a(uip-sr.o)
                              node.o (uip_sr_num_nodes)
build/cooja/mtype580.a(uip-ds6.o)
                              build/cooja/mtype580.a(deployment.o) (uip_ds6_set_addr_iid)
build/cooja/mtype580.a(tcpip.o)
                              build/cooja/mtype580.a(contiki-main.o) (tcpip_process)
build/cooja/mtype580.a(uip-ds6-route.o)
                              build/cooja/mtype580.a(uip-ds6.o) (uip_ds6_route_init)
build/cooja/mtype580.a(uip-ds6-nbr.o)
                              build/cooja/mtype580.a(uip-ds6.o) (uip_ds6_neighbors_init)
build/cooja/mtype580.a(uip6.o)
                              build/cooja/mtype580.a(contiki-main.o) (uip_lladdr)
build/cooja/mtype580.a(uip-nd6.o)
                              build/cooja/mtype580.a(uip6.o) (uip_nd6_init)
build/cooja/mtype580.a(simple-udp.o)
                              node.o (simple_udp_sendto)
build/cooja/mtype580.a(sicslowpan.o)
                              build/cooja/mtype580.a(contiki-main.o) (sicslowpan_driver)
build/cooja/mtype580.a(uiplib.o)
                              build/cooja/mtype580.a(log.o) (uiplib_ipaddr_snprint)
build/cooja/mtype580.a(rpl.o)
                              node.o (rpl_lite_driver)
build/cooja/mtype580.a(rpl-dag-root.o)
                              build/cooja/mtype580.a(rpl.o) (rpl_dag_root_is_root)
build/cooja/mtype580.a(watchdog.o)
                              build/cooja/mtype580.a(contiki-main.o) (watchdog_init)
build/cooja/mtype580.a(int-master.o)
                              build/cooja/mtype580.a(button-hal.o) (int_master_read_and_disable)
build/cooja/mtype580.a(cooja16.o)
                              build/cooja/mtype580.a(deployment.o) (deployment_cooja16)
build/cooja/mtype580.a(simple-energest)
                              build/cooja/mtype580.a(contiki-main.o) (simple_energest_init)
build/cooja/mtype580.a(orchestra.o)
                              build/cooja/mtype580.a(contiki-main.o) (orchestra_init)
build/cooja/mtype580.a(orchestra-rule-)
                              build/cooja/mtype580.a(orchestra.o) (eb_per_time_source)
build/cooja/mtype580.a(stimer.o)
                              build/cooja/mtype580.a(uip-ds6.o) (stimer_set)
build/cooja/mtype580.a(ringbufindex.o)
                              build/cooja/mtype580.a(tsch.o) (ringbufindex_init)
build/cooja/mtype580.a(memb.o)
                              build/cooja/mtype580.a(queuebuf.o) (memb_init)
build/cooja/mtype580.a(ringbuf.o)
                              build/cooja/mtype580.a(serial-line.o) (ringbuf_init)
build/cooja/mtype580.a(nbr-table.o)
                              build/cooja/mtype580.a(uip-ds6-nbr.o) (nbr_table_register)
build/cooja/mtype580.a(link-stats.o)
                              build/cooja/mtype580.a(tsch.o) (link_stats_packet_sent)
build/cooja/mtype580.a(mac-sequence.o)
                              build/cooja/mtype580.a(tsch.o) (mac_sequence_is_duplicate)
build/cooja/mtype580.a(mac.o)
                              build/cooja/mtype580.a(tsch.o) (mac_call_sent_callback)
build/cooja/mtype580.a(framer-802154.o)
                              build/cooja/mtype580.a(tsch.o) (framer_802154)
build/cooja/mtype580.a(frame802154.o)
                              build/cooja/mtype580.a(tsch.o) (frame802154_get_pan_id)
build/cooja/mtype580.a(tsch-queue.o)
                              build/cooja/mtype580.a(tsch.o) (n_eb)
build/cooja/mtype580.a(tsch-timeslot-t)
                              build/cooja/mtype580.a(tsch.o) (tsch_timeslot_timing_us_10000)
build/cooja/mtype580.a(tsch-schedule.o)
                              build/cooja/mtype580.a(tsch.o) (tsch_schedule_add_slotframe)
build/cooja/mtype580.a(tsch-slot-opera)
                              build/cooja/mtype580.a(tsch.o) (dequeued_ringbuf)
build/cooja/mtype580.a(tsch-packet.o)
                              build/cooja/mtype580.a(tsch-slot-opera) (tsch_packet_create_eack)
build/cooja/mtype580.a(tsch-security.o)
                              build/cooja/mtype580.a(tsch.o) (tsch_security_set_packetbuf_attr)
build/cooja/mtype580.a(tsch-rpl.o)
                              build/cooja/mtype580.a(tsch.o) (tsch_rpl_callback_ka_sent)
build/cooja/mtype580.a(tsch-adaptive-t)
                              build/cooja/mtype580.a(tsch-slot-opera) (tsch_timesync_update)
build/cooja/mtype580.a(uipbuf.o)
                              build/cooja/mtype580.a(tcpip.o) (uipbuf_clear)
build/cooja/mtype580.a(uip-icmp6.o)
                              build/cooja/mtype580.a(uip6.o) (uip_icmp6_input)
build/cooja/mtype580.a(uip-packetqueue)
                              build/cooja/mtype580.a(uip-ds6-nbr.o) (uip_packetqueue_new)
build/cooja/mtype580.a(uip-udp-packet.)
                              build/cooja/mtype580.a(simple-udp.o) (uip_udp_packet_sendto)
build/cooja/mtype580.a(rpl-icmp6.o)
                              build/cooja/mtype580.a(rpl.o) (rpl_icmp6_init)
build/cooja/mtype580.a(rpl-neighbor.o)
                              build/cooja/mtype580.a(tsch-rpl.o) (rpl_neighbor_get_ipaddr)
build/cooja/mtype580.a(rpl-dag.o)
                              build/cooja/mtype580.a(rpl.o) (curr_instance)
build/cooja/mtype580.a(rpl-timers.o)
                              build/cooja/mtype580.a(rpl-dag.o) (rpl_timers_schedule_periodic_dis)
build/cooja/mtype580.a(rpl-ext-header.)
                              build/cooja/mtype580.a(rpl.o) (rpl_ext_header_srh_get_next_hop)
build/cooja/mtype580.a(rpl-nbr-policy.)
                              build/cooja/mtype580.a(nbr-table.o) (rpl_nbr_policy_find_removable)
build/cooja/mtype580.a(rpl-mrhof.o)
                              build/cooja/mtype580.a(rpl-dag.o) (rpl_mrhof)
build/cooja/mtype580.a(orchestra-rule-)
                              build/cooja/mtype580.a(orchestra.o) (unicast_per_neighbor_rpl_ns)
build/cooja/mtype580.a(orchestra-rule-)
                              build/cooja/mtype580.a(orchestra.o) (default_common)
build/cooja/mtype580.a(ccm-star.o)
                              build/cooja/mtype580.a(tsch-security.o) (ccm_star_driver)
build/cooja/mtype580.a(aes-128.o)
                              build/cooja/mtype580.a(ccm-star.o) (aes_128_driver)
build/cooja/mtype580.a(frame802154e-ie)
                              build/cooja/mtype580.a(tsch-packet.o) (frame80215e_create_ie_header_ack_nack_time_correction)

As-needed library included to satisfy reference by file (symbol)

libc.so.6                     build/cooja/mtype580.a(random.o) (srand@@GLIBC_2.2.5)

Allocating common symbols
Common symbol       size              file

simButtonIsDown     0x1               build/cooja/mtype580.a(buttons.o)
simOutDataBuffer    0x7d              build/cooja/mtype580.a(cooja-radio.o)
uip_ds6_prefix_list
                    0x60              build/cooja/mtype580.a(uip-ds6.o)
linkaddr_node_addr  0x8               build/cooja/mtype580.a(linkaddr.o)
simSerialReceivingFlag
                    0x1               build/cooja/mtype580.a(rs232.o)
simEEPROMData       0x400             build/cooja/mtype580.a(eeprom.o)
tsch_current_channel
                    0x1               build/cooja/mtype580.a(tsch-slot-opera)
tsch_hopping_sequence
                    0x4               build/cooja/mtype580.a(tsch.o)
periodic_timer      0x40              build/cooja/mtype580.a(link-stats.o)
simLoggedLength     0x4               build/cooja/mtype580.a(cooja-log.o)
simSerialReceivingLength
                    0x4               build/cooja/mtype580.a(rs232.o)
simEtimerPending    0x4               build/cooja/mtype580.a(simEnvChange.o)
energest_current_time
                    0x28              build/cooja/mtype580.a(energest.o)
uip_slen            0x2               build/cooja/mtype580.a(uip6.o)
uip_ds6_timer_periodic
                    0x20              build/cooja/mtype580.a(uip-ds6.o)
tsch_timing_us      0x18              build/cooja/mtype580.a(tsch.o)
input_ringbuf       0x3               build/cooja/mtype580.a(tsch-slot-opera)
simVibChanged       0x1               build/cooja/mtype580.a(vib-sensor.o)
tsch_current_channel_offset
                    0x1               build/cooja/mtype580.a(tsch-slot-opera)
simRtimerPending    0x4               build/cooja/mtype580.a(rtimer-arch.o)
button_hal_periodic_event
                    0x1               build/cooja/mtype580.a(button-hal.o)
uip_ds6_netif_addr_list_offset
                    0x1               build/cooja/mtype580.a(uip-ds6.o)
n_eb                0x8               build/cooja/mtype580.a(tsch-queue.o)
uip_lladdr          0x8               build/cooja/mtype580.a(uip6.o)
tsch_current_asn    0x8               build/cooja/mtype580.a(tsch.o)
button_hal_press_event
                    0x1               build/cooja/mtype580.a(button-hal.o)
simProcessRunValue  0x4               build/cooja/mtype580.a(simEnvChange.o)
serial_line_event_message
                    0x1               build/cooja/mtype580.a(serial-line.o)
uip_appdata         0x8               build/cooja/mtype580.a(uip6.o)
energest_current_mode
                    0x5               build/cooja/mtype580.a(energest.o)
referenceVar        0x8               build/cooja/mtype580.o
simCurrentTime      0x8               build/cooja/mtype580.a(clock.o)
simVibIsActive      0x1               build/cooja/mtype580.a(vib-sensor.o)
tsch_last_sync_time
                    0x8               build/cooja/mtype580.a(tsch-slot-opera)
uip_ds6_if          0x138             build/cooja/mtype580.a(uip-ds6.o)
dequeued_array      0x200             build/cooja/mtype580.a(tsch-slot-opera)
uip_flags           0x1               build/cooja/mtype580.a(uip6.o)
rx_count            0x8               build/cooja/mtype580.a(tsch.o)
uip_ds6_timer_ra    0x10              build/cooja/mtype580.a(uip-ds6.o)
min_drift_seen      0x4               build/cooja/mtype580.a(tsch.o)
simSerialReceivingData
                    0x800             build/cooja/mtype580.a(rs232.o)
simLoggedFlag       0x1               build/cooja/mtype580.a(cooja-log.o)
packetbuf_attrs     0x20              build/cooja/mtype580.a(packetbuf.o)
uip_ds6_addr_size   0x1               build/cooja/mtype580.a(uip-ds6.o)
uip_aligned_buf     0x500             build/cooja/mtype580.a(uip6.o)
simRtimerCurrentTicks
                    0x8               build/cooja/mtype580.a(rtimer-arch.o)
simRandomSeed       0x4               build/cooja/mtype580.a(moteid.o)
energest_total_time
                    0x28              build/cooja/mtype580.a(energest.o)
rpl_multicast_addr  0x10              build/cooja/mtype580.a(rpl.o)
simLoggedData       0x2000            build/cooja/mtype580.a(cooja-log.o)
tsch_timing         0x60              build/cooja/mtype580.a(tsch.o)
simEtimerNextExpirationTime
                    0x8               build/cooja/mtype580.a(simEnvChange.o)
SFA_on              0x1               build/cooja/mtype580.a(uip6.o)
dequeued_ringbuf    0x3               build/cooja/mtype580.a(tsch-slot-opera)
last_timesource_neighbor
                    0x8               build/cooja/mtype580.a(tsch-adaptive-t)
sync_count          0x8               build/cooja/mtype580.a(tsch.o)
uip_len             0x2               build/cooja/mtype580.a(uip6.o)
simButtonChanged    0x1               build/cooja/mtype580.a(buttons.o)
simRtimerNextExpirationTime
                    0x8               build/cooja/mtype580.a(rtimer-arch.o)
simPirIsActive      0x1               build/cooja/mtype580.a(pir-sensor.o)
simInDataBuffer     0x7d              build/cooja/mtype580.a(cooja-radio.o)
n_broadcast         0x8               build/cooja/mtype580.a(tsch-queue.o)
simPirChanged       0x1               build/cooja/mtype580.a(pir-sensor.o)
simBeeped           0x1               build/cooja/mtype580.a(beep.o)
tcpip_event         0x1               build/cooja/mtype580.a(tcpip.o)
uip_sappdata        0x8               build/cooja/mtype580.a(uip6.o)
tsch_join_priority  0x1               build/cooja/mtype580.a(tsch.o)
sensors_event       0x1               build/cooja/mtype580.a(sensors.o)
input_array         0x240             build/cooja/mtype580.a(tsch-slot-opera)
tx_count            0x8               build/cooja/mtype580.a(tsch.o)
orchestra_parent_linkaddr
                    0x8               build/cooja/mtype580.a(orchestra.o)
max_drift_seen      0x4               build/cooja/mtype580.a(tsch.o)
uip_udp_conns       0x140             build/cooja/mtype580.a(uip6.o)
button_hal_release_event
                    0x1               build/cooja/mtype580.a(button-hal.o)
tsch_hopping_sequence_length
                    0x4               build/cooja/mtype580.a(tsch.o)
packetbuf_addrs     0x10              build/cooja/mtype580.a(packetbuf.o)
uip_udp_conn        0x8               build/cooja/mtype580.a(uip6.o)
simMoteIDChanged    0x1               build/cooja/mtype580.a(moteid.o)
sensors_flags       0x4               build/cooja/mtype580.o
curr_instance       0x260             build/cooja/mtype580.a(rpl-dag.o)
simMoteID           0x4               build/cooja/mtype580.a(moteid.o)
uip_conn            0x8               build/cooja/mtype580.a(uip6.o)

Discarded input sections

 .note.GNU-stack
                0x0000000000000000        0x0 /usr/lib/gcc/x86_64-linux-gnu/7/../../../x86_64-linux-gnu/crti.o
 .note.GNU-stack
                0x0000000000000000        0x0 /usr/lib/gcc/x86_64-linux-gnu/7/crtbeginS.o
 .note.GNU-stack
                0x0000000000000000        0x0 node.o
 .note.GNU-stack
                0x0000000000000000        0x0 build/cooja/mtype580.o
 .note.GNU-stack
                0x0000000000000000        0x0 build/cooja/mtype580.a(simEnvChange.o)
 .note.GNU-stack
                0x0000000000000000        0x0 build/cooja/mtype580.a(cooja_mt.o)
 .note.GNU-stack
                0x0000000000000000        0x0 build/cooja/mtype580.a(cooja_mtarch.o)
 .note.GNU-stack
                0x0000000000000000        0x0 build/cooja/mtype580.a(rtimer-arch.o)
 .note.GNU-stack
                0x0000000000000000        0x0 build/cooja/mtype580.a(beep.o)
 .note.GNU-stack
                0x0000000000000000        0x0 build/cooja/mtype580.a(leds-arch.o)
 .note.GNU-stack
                0x0000000000000000        0x0 build/cooja/mtype580.a(moteid.o)
 .note.GNU-stack
                0x0000000000000000        0x0 build/cooja/mtype580.a(pir-sensor.o)
 .note.GNU-stack
                0x0000000000000000        0x0 build/cooja/mtype580.a(rs232.o)
 .note.GNU-stack
                0x0000000000000000        0x0 build/cooja/mtype580.a(vib-sensor.o)
 .note.GNU-stack
                0x0000000000000000        0x0 build/cooja/mtype580.a(clock.o)
 .note.GNU-stack
                0x0000000000000000        0x0 build/cooja/mtype580.a(cooja-log.o)
 .note.GNU-stack
                0x0000000000000000        0x0 build/cooja/mtype580.a(cfs-cooja.o)
 .note.GNU-stack
                0x0000000000000000        0x0 build/cooja/mtype580.a(cooja-radio.o)
 .note.GNU-stack
                0x0000000000000000        0x0 build/cooja/mtype580.a(eeprom.o)
 .note.GNU-stack
                0x0000000000000000        0x0 build/cooja/mtype580.a(random.o)
 .note.GNU-stack
                0x0000000000000000        0x0 build/cooja/mtype580.a(sensors.o)
 .note.GNU-stack
                0x0000000000000000        0x0 build/cooja/mtype580.a(leds.o)
 .note.GNU-stack
                0x0000000000000000        0x0 build/cooja/mtype580.a(gpio-hal-arch.o)
 .note.GNU-stack
                0x0000000000000000        0x0 build/cooja/mtype580.a(buttons.o)
 .note.GNU-stack
                0x0000000000000000        0x0 build/cooja/mtype580.a(deployment.o)
 .note.GNU-stack
                0x0000000000000000        0x0 build/cooja/mtype580.a(contiki-main.o)
 .note.GNU-stack
                0x0000000000000000        0x0 build/cooja/mtype580.a(autostart.o)
 .note.GNU-stack
                0x0000000000000000        0x0 build/cooja/mtype580.a(log.o)
 .note.GNU-stack
                0x0000000000000000        0x0 build/cooja/mtype580.a(energest.o)
 .note.GNU-stack
                0x0000000000000000        0x0 build/cooja/mtype580.a(etimer.o)
 .note.GNU-stack
                0x0000000000000000        0x0 build/cooja/mtype580.a(node-id.o)
 .note.GNU-stack
                0x0000000000000000        0x0 build/cooja/mtype580.a(ctimer.o)
 .note.GNU-stack
                0x0000000000000000        0x0 build/cooja/mtype580.a(process.o)
 .note.GNU-stack
                0x0000000000000000        0x0 build/cooja/mtype580.a(rtimer.o)
 .note.GNU-stack
                0x0000000000000000        0x0 build/cooja/mtype580.a(timer.o)
 .note.GNU-stack
                0x0000000000000000        0x0 build/cooja/mtype580.a(list.o)
 .note.GNU-stack
                0x0000000000000000        0x0 build/cooja/mtype580.a(button-hal.o)
 .note.GNU-stack
                0x0000000000000000        0x0 build/cooja/mtype580.a(serial-line.o)
 .note.GNU-stack
                0x0000000000000000        0x0 build/cooja/mtype580.a(gpio-hal.o)
 .note.GNU-stack
                0x0000000000000000        0x0 build/cooja/mtype580.a(queuebuf.o)
 .note.GNU-stack
                0x0000000000000000        0x0 build/cooja/mtype580.a(packetbuf.o)
 .note.GNU-stack
                0x0000000000000000        0x0 build/cooja/mtype580.a(netstack.o)
 .note.GNU-stack
                0x0000000000000000        0x0 build/cooja/mtype580.a(linkaddr.o)
 .note.GNU-stack
                0x0000000000000000        0x0 build/cooja/mtype580.a(tsch.o)
 .note.GNU-stack
                0x0000000000000000        0x0 build/cooja/mtype580.a(uip-sr.o)
 .note.GNU-stack
                0x0000000000000000        0x0 build/cooja/mtype580.a(uip-ds6.o)
 .note.GNU-stack
                0x0000000000000000        0x0 build/cooja/mtype580.a(tcpip.o)
 .note.GNU-stack
                0x0000000000000000        0x0 build/cooja/mtype580.a(uip-ds6-route.o)
 .note.GNU-stack
                0x0000000000000000        0x0 build/cooja/mtype580.a(uip-ds6-nbr.o)
 .note.GNU-stack
                0x0000000000000000        0x0 build/cooja/mtype580.a(uip6.o)
 .note.GNU-stack
                0x0000000000000000        0x0 build/cooja/mtype580.a(uip-nd6.o)
 .note.GNU-stack
                0x0000000000000000        0x0 build/cooja/mtype580.a(simple-udp.o)
 .note.GNU-stack
                0x0000000000000000        0x0 build/cooja/mtype580.a(sicslowpan.o)
 .note.GNU-stack
                0x0000000000000000        0x0 build/cooja/mtype580.a(uiplib.o)
 .note.GNU-stack
                0x0000000000000000        0x0 build/cooja/mtype580.a(rpl.o)
 .note.GNU-stack
                0x0000000000000000        0x0 build/cooja/mtype580.a(rpl-dag-root.o)
 .note.GNU-stack
                0x0000000000000000        0x0 build/cooja/mtype580.a(watchdog.o)
 .note.GNU-stack
                0x0000000000000000        0x0 build/cooja/mtype580.a(int-master.o)
 .note.GNU-stack
                0x0000000000000000        0x0 build/cooja/mtype580.a(cooja16.o)
 .note.GNU-stack
                0x0000000000000000        0x0 build/cooja/mtype580.a(simple-energest)
 .note.GNU-stack
                0x0000000000000000        0x0 build/cooja/mtype580.a(orchestra.o)
 .note.GNU-stack
                0x0000000000000000        0x0 build/cooja/mtype580.a(orchestra-rule-)
 .note.GNU-stack
                0x0000000000000000        0x0 build/cooja/mtype580.a(stimer.o)
 .note.GNU-stack
                0x0000000000000000        0x0 build/cooja/mtype580.a(ringbufindex.o)
 .note.GNU-stack
                0x0000000000000000        0x0 build/cooja/mtype580.a(memb.o)
 .note.GNU-stack
                0x0000000000000000        0x0 build/cooja/mtype580.a(ringbuf.o)
 .note.GNU-stack
                0x0000000000000000        0x0 build/cooja/mtype580.a(nbr-table.o)
 .note.GNU-stack
                0x0000000000000000        0x0 build/cooja/mtype580.a(link-stats.o)
 .note.GNU-stack
                0x0000000000000000        0x0 build/cooja/mtype580.a(mac-sequence.o)
 .note.GNU-stack
                0x0000000000000000        0x0 build/cooja/mtype580.a(mac.o)
 .note.GNU-stack
                0x0000000000000000        0x0 build/cooja/mtype580.a(framer-802154.o)
 .note.GNU-stack
                0x0000000000000000        0x0 build/cooja/mtype580.a(frame802154.o)
 .note.GNU-stack
                0x0000000000000000        0x0 build/cooja/mtype580.a(tsch-queue.o)
 .note.GNU-stack
                0x0000000000000000        0x0 build/cooja/mtype580.a(tsch-timeslot-t)
 .note.GNU-stack
                0x0000000000000000        0x0 build/cooja/mtype580.a(tsch-schedule.o)
 .note.GNU-stack
                0x0000000000000000        0x0 build/cooja/mtype580.a(tsch-slot-opera)
 .note.GNU-stack
                0x0000000000000000        0x0 build/cooja/mtype580.a(tsch-packet.o)
 .note.GNU-stack
                0x0000000000000000        0x0 build/cooja/mtype580.a(tsch-security.o)
 .note.GNU-stack
                0x0000000000000000        0x0 build/cooja/mtype580.a(tsch-rpl.o)
 .note.GNU-stack
                0x0000000000000000        0x0 build/cooja/mtype580.a(tsch-adaptive-t)
 .note.GNU-stack
                0x0000000000000000        0x0 build/cooja/mtype580.a(uipbuf.o)
 .note.GNU-stack
                0x0000000000000000        0x0 build/cooja/mtype580.a(uip-icmp6.o)
 .note.GNU-stack
                0x0000000000000000        0x0 build/cooja/mtype580.a(uip-packetqueue)
 .note.GNU-stack
                0x0000000000000000        0x0 build/cooja/mtype580.a(uip-udp-packet.)
 .note.GNU-stack
                0x0000000000000000        0x0 build/cooja/mtype580.a(rpl-icmp6.o)
 .note.GNU-stack
                0x0000000000000000        0x0 build/cooja/mtype580.a(rpl-neighbor.o)
 .note.GNU-stack
                0x0000000000000000        0x0 build/cooja/mtype580.a(rpl-dag.o)
 .note.GNU-stack
                0x0000000000000000        0x0 build/cooja/mtype580.a(rpl-timers.o)
 .note.GNU-stack
                0x0000000000000000        0x0 build/cooja/mtype580.a(rpl-ext-header.)
 .note.GNU-stack
                0x0000000000000000        0x0 build/cooja/mtype580.a(rpl-nbr-policy.)
 .note.GNU-stack
                0x0000000000000000        0x0 build/cooja/mtype580.a(rpl-mrhof.o)
 .note.GNU-stack
                0x0000000000000000        0x0 build/cooja/mtype580.a(orchestra-rule-)
 .note.GNU-stack
                0x0000000000000000        0x0 build/cooja/mtype580.a(orchestra-rule-)
 .note.GNU-stack
                0x0000000000000000        0x0 build/cooja/mtype580.a(ccm-star.o)
 .note.GNU-stack
                0x0000000000000000        0x0 build/cooja/mtype580.a(aes-128.o)
 .note.GNU-stack
                0x0000000000000000        0x0 build/cooja/mtype580.a(frame802154e-ie)
 .note.GNU-stack
                0x0000000000000000        0x0 /usr/lib/gcc/x86_64-linux-gnu/7/crtendS.o
 .note.GNU-stack
                0x0000000000000000        0x0 /usr/lib/gcc/x86_64-linux-gnu/7/../../../x86_64-linux-gnu/crtn.o

Memory Configuration

Name             Origin             Length             Attributes
*default*        0x0000000000000000 0xffffffffffffffff

Linker script and memory map

LOAD /usr/lib/gcc/x86_64-linux-gnu/7/../../../x86_64-linux-gnu/crti.o
LOAD /usr/lib/gcc/x86_64-linux-gnu/7/crtbeginS.o
LOAD node.o
LOAD build/cooja/mtype580.o
LOAD build/cooja/mtype580.a
LOAD /usr/lib/gcc/x86_64-linux-gnu/7/libgcc.a
LOAD /usr/lib/gcc/x86_64-linux-gnu/7/libgcc_s.so
START GROUP
LOAD /usr/lib/gcc/x86_64-linux-gnu/7/libgcc_s.so.1
LOAD /usr/lib/gcc/x86_64-linux-gnu/7/libgcc.a
END GROUP
LOAD /usr/lib/gcc/x86_64-linux-gnu/7/../../../x86_64-linux-gnu/libc.so
START GROUP
LOAD /lib/x86_64-linux-gnu/libc.so.6
LOAD /usr/lib/x86_64-linux-gnu/libc_nonshared.a
LOAD /lib/x86_64-linux-gnu/ld-linux-x86-64.so.2
END GROUP
LOAD /usr/lib/gcc/x86_64-linux-gnu/7/libgcc.a
LOAD /usr/lib/gcc/x86_64-linux-gnu/7/libgcc_s.so
START GROUP
LOAD /usr/lib/gcc/x86_64-linux-gnu/7/libgcc_s.so.1
LOAD /usr/lib/gcc/x86_64-linux-gnu/7/libgcc.a
END GROUP
LOAD /usr/lib/gcc/x86_64-linux-gnu/7/crtendS.o
LOAD /usr/lib/gcc/x86_64-linux-gnu/7/../../../x86_64-linux-gnu/crtn.o
                0x00000000000001c8                . = (SEGMENT_START ("text-segment", 0x0) + SIZEOF_HEADERS)

.note.gnu.build-id
                0x00000000000001c8       0x24
 *(.note.gnu.build-id)
 .note.gnu.build-id
                0x00000000000001c8       0x24 /usr/lib/gcc/x86_64-linux-gnu/7/../../../x86_64-linux-gnu/crti.o

.hash
 *(.hash)

.gnu.hash       0x00000000000001f0     0x1870
 *(.gnu.hash)
 .gnu.hash      0x00000000000001f0     0x1870 /usr/lib/gcc/x86_64-linux-gnu/7/../../../x86_64-linux-gnu/crti.o

.dynsym         0x0000000000001a60     0x4b00
 *(.dynsym)
 .dynsym        0x0000000000001a60     0x4b00 /usr/lib/gcc/x86_64-linux-gnu/7/../../../x86_64-linux-gnu/crti.o

.dynstr         0x0000000000006560     0x3c72
 *(.dynstr)
 .dynstr        0x0000000000006560     0x3c72 /usr/lib/gcc/x86_64-linux-gnu/7/../../../x86_64-linux-gnu/crti.o

.gnu.version    0x000000000000a1d2      0x640
 *(.gnu.version)
 .gnu.version   0x000000000000a1d2      0x640 /usr/lib/gcc/x86_64-linux-gnu/7/../../../x86_64-linux-gnu/crti.o

.gnu.version_d  0x000000000000a818        0x0
 *(.gnu.version_d)
 .gnu.version_d
                0x000000000000a818        0x0 /usr/lib/gcc/x86_64-linux-gnu/7/../../../x86_64-linux-gnu/crti.o

.gnu.version_r  0x000000000000a818       0x40
 *(.gnu.version_r)
 .gnu.version_r
                0x000000000000a818       0x40 /usr/lib/gcc/x86_64-linux-gnu/7/../../../x86_64-linux-gnu/crti.o

.rela.dyn       0x000000000000a858     0x2568
 *(.rela.init)
 *(.rela.text .rela.text.* .rela.gnu.linkonce.t.*)
 .rela.text     0x000000000000a858        0x0 /usr/lib/gcc/x86_64-linux-gnu/7/../../../x86_64-linux-gnu/crti.o
 *(.rela.fini)
 *(.rela.rodata .rela.rodata.* .rela.gnu.linkonce.r.*)
 *(.rela.data .rela.data.* .rela.gnu.linkonce.d.*)
 .rela.data.rel.local
                0x000000000000a858      0x8e8 /usr/lib/gcc/x86_64-linux-gnu/7/../../../x86_64-linux-gnu/crti.o
 .rela.data.rel.ro
                0x000000000000b140      0x288 /usr/lib/gcc/x86_64-linux-gnu/7/../../../x86_64-linux-gnu/crti.o
 .rela.data.rel
                0x000000000000b3c8      0x3f0 /usr/lib/gcc/x86_64-linux-gnu/7/../../../x86_64-linux-gnu/crti.o
 .rela.data.rel.ro.local
                0x000000000000b7b8      0x600 /usr/lib/gcc/x86_64-linux-gnu/7/../../../x86_64-linux-gnu/crti.o
 *(.rela.tdata .rela.tdata.* .rela.gnu.linkonce.td.*)
 *(.rela.tbss .rela.tbss.* .rela.gnu.linkonce.tb.*)
 *(.rela.ctors)
 *(.rela.dtors)
 *(.rela.got)
 .rela.got      0x000000000000bdb8      0xfd8 /usr/lib/gcc/x86_64-linux-gnu/7/../../../x86_64-linux-gnu/crti.o
 *(.rela.bss .rela.bss.* .rela.gnu.linkonce.b.*)
 *(.rela.ldata .rela.ldata.* .rela.gnu.linkonce.l.*)
 *(.rela.lbss .rela.lbss.* .rela.gnu.linkonce.lb.*)
 *(.rela.lrodata .rela.lrodata.* .rela.gnu.linkonce.lr.*)
 *(.rela.ifunc)
 .rela.ifunc    0x000000000000cd90        0x0 /usr/lib/gcc/x86_64-linux-gnu/7/../../../x86_64-linux-gnu/crti.o
 .rela.fini_array
                0x000000000000cd90       0x18 /usr/lib/gcc/x86_64-linux-gnu/7/../../../x86_64-linux-gnu/crti.o
 .rela.init_array
                0x000000000000cda8       0x18 /usr/lib/gcc/x86_64-linux-gnu/7/../../../x86_64-linux-gnu/crti.o

.rela.plt       0x000000000000cdc0     0x28c8
 *(.rela.plt)
 .rela.plt      0x000000000000cdc0     0x28c8 /usr/lib/gcc/x86_64-linux-gnu/7/../../../x86_64-linux-gnu/crti.o
 *(.rela.iplt)

.init           0x000000000000f688       0x17
 *(SORT_NONE(.init))
 .init          0x000000000000f688       0x12 /usr/lib/gcc/x86_64-linux-gnu/7/../../../x86_64-linux-gnu/crti.o
                0x000000000000f688                _init
 .init          0x000000000000f69a        0x5 /usr/lib/gcc/x86_64-linux-gnu/7/../../../x86_64-linux-gnu/crtn.o

.plt            0x000000000000f6a0     0x1b40
 *(.plt)
 .plt           0x000000000000f6a0     0x1b40 /usr/lib/gcc/x86_64-linux-gnu/7/../../../x86_64-linux-gnu/crti.o
 *(.iplt)

.plt.got        0x00000000000111e0       0x18
 *(.plt.got)
 .plt.got       0x00000000000111e0       0x18 /usr/lib/gcc/x86_64-linux-gnu/7/../../../x86_64-linux-gnu/crti.o

.plt.sec
 *(.plt.sec)

.text           0x0000000000011200    0x25e2d
 *(.text.unlikely .text.*_unlikely .text.unlikely.*)
 *(.text.exit .text.exit.*)
 *(.text.startup .text.startup.*)
 *(.text.hot .text.hot.*)
 *(.text .stub .text.* .gnu.linkonce.t.*)
 .text          0x0000000000011200        0x0 /usr/lib/gcc/x86_64-linux-gnu/7/../../../x86_64-linux-gnu/crti.o
 .text          0x0000000000011200       0xda /usr/lib/gcc/x86_64-linux-gnu/7/crtbeginS.o
 .text          0x00000000000112da      0x4a1 node.o
 .text          0x000000000001177b      0x354 build/cooja/mtype580.o
                0x0000000000011827                platform_init_stage_one
                0x0000000000011838                platform_init_stage_two
                0x0000000000011849                platform_init_stage_three
                0x000000000001185a                platform_main_loop
                0x00000000000118f0                Java_org_contikios_cooja_corecomm_Lib4_init
                0x0000000000011933                Java_org_contikios_cooja_corecomm_Lib4_getMemory
                0x000000000001198b                Java_org_contikios_cooja_corecomm_Lib4_setMemory
                0x0000000000011a18                Java_org_contikios_cooja_corecomm_Lib4_tick
                0x0000000000011aa1                Java_org_contikios_cooja_corecomm_Lib4_setReferenceAddress
 .text          0x0000000000011acf       0x89 build/cooja/mtype580.a(simEnvChange.o)
                0x0000000000011acf                doActionsBeforeTick
                0x0000000000011b13                doActionsAfterTick
 .text          0x0000000000011b58       0x9f build/cooja/mtype580.a(cooja_mt.o)
                0x0000000000011b58                cooja_mt_start
                0x0000000000011b94                cooja_mt_exec
                0x0000000000011bd3                cooja_mt_yield
 .text          0x0000000000011bf7       0xfe build/cooja/mtype580.a(cooja_mtarch.o)
                0x0000000000011bf7                cooja_mtarch_start
                0x0000000000011c96                cooja_sw
                0x0000000000011cbf                cooja_mtarch_exec
                0x0000000000011ce9                cooja_mtarch_yield
 .text          0x0000000000011cf5       0xb4 build/cooja/mtype580.a(rtimer-arch.o)
                0x0000000000011cf5                rtimer_arch_init
                0x0000000000011d17                rtimer_arch_schedule
                0x0000000000011d3d                rtimer_arch_next
                0x0000000000011d4d                rtimer_arch_pending
                0x0000000000011d5c                rtimer_arch_check
                0x0000000000011d99                rtimer_arch_now
 .text          0x0000000000011da9       0xba build/cooja/mtype580.a(beep.o)
                0x0000000000011da9                beep_alarm
                0x0000000000011dc0                beep_beep
                0x0000000000011dd4                beep
                0x0000000000011de5                beep_down
                0x0000000000011df9                beep_on
                0x0000000000011e0a                beep_off
                0x0000000000011e1b                beep_spinup
                0x0000000000011e2c                beep_quick
                0x0000000000011e40                beep_long
 .text          0x0000000000011e63       0x69 build/cooja/mtype580.a(leds-arch.o)
                0x0000000000011e7a                leds_arch_init
 .text          0x0000000000011ecc       0x39 build/cooja/mtype580.a(moteid.o)
 .text          0x0000000000011f05       0xe5 build/cooja/mtype580.a(pir-sensor.o)
 .text          0x0000000000011fea      0x175 build/cooja/mtype580.a(rs232.o)
                0x0000000000011fea                rs232_init
                0x0000000000011ff1                rs232_set_speed
                0x0000000000011ffd                rs232_set_input
                0x0000000000012013                rs232_send
                0x000000000001203a                rs232_print
                0x0000000000012061                slip_arch_writeb
 .text          0x000000000001215f       0xe5 build/cooja/mtype580.a(vib-sensor.o)
 .text          0x0000000000012244       0x57 build/cooja/mtype580.a(clock.o)
                0x0000000000012244                clock_init
                0x000000000001224b                clock_time
                0x000000000001225b                clock_seconds
                0x0000000000012283                clock_delay
 .text          0x000000000001229b      0x30e build/cooja/mtype580.a(cooja-log.o)
                0x000000000001229b                simlog_char
                0x00000000000122f4                simlog
                0x0000000000012393                log_message
                0x00000000000123cc                log_set_putchar_with_slip
                0x00000000000123df                log_putchar
                0x000000000001245f                log_puts
                0x0000000000012488                log_printf
 .text          0x00000000000125a9      0x373 build/cooja/mtype580.a(cfs-cooja.o)
                0x00000000000125a9                cfs_open
                0x0000000000012622                cfs_close
                0x0000000000012633                cfs_read
                0x00000000000126f7                cfs_write
                0x0000000000012806                cfs_seek
                0x00000000000128b1                cfs_remove
                0x00000000000128dd                cfs_opendir
                0x00000000000128f0                cfs_readdir
                0x0000000000012903                cfs_closedir
 .text          0x000000000001291c      0x8a7 build/cooja/mtype580.a(cooja-radio.o)
                0x0000000000012ab8                radio_set_channel
                0x0000000000012ace                radio_set_txpower
                0x0000000000012ae7                radio_signal_strength_last
                0x0000000000012af6                radio_signal_strength_current
                0x0000000000012b05                radio_LQI
 .text          0x00000000000131c3      0x125 build/cooja/mtype580.a(eeprom.o)
                0x00000000000131c3                eeprom_init
                0x00000000000131ca                eeprom_read
                0x0000000000013252                eeprom_write
 .text          0x00000000000132e8       0x27 build/cooja/mtype580.a(random.o)
                0x00000000000132e8                random_init
                0x0000000000013304                random_rand
 .text          0x000000000001330f      0x33f build/cooja/mtype580.a(sensors.o)
                0x0000000000013354                sensors_first
                0x0000000000013364                sensors_next
                0x000000000001338f                sensors_changed
                0x00000000000133d8                sensors_find
 .text          0x000000000001364e      0x386 build/cooja/mtype580.a(leds.o)
                0x000000000001364e                leds_init
                0x0000000000013695                leds_single_on
                0x00000000000136fe                leds_single_off
                0x0000000000013767                leds_single_toggle
                0x000000000001379b                leds_on
                0x0000000000013827                leds_off
                0x00000000000138b3                leds_toggle
                0x000000000001390a                leds_set
                0x000000000001392f                leds_get
 .text          0x00000000000139d4      0x3ce build/cooja/mtype580.a(gpio-hal-arch.o)
                0x00000000000139d4                gpio_hal_arch_register_pin_callback
                0x0000000000013a74                gpio_hal_arch_init
                0x0000000000013abd                gpio_hal_arch_no_port_interrupt_enable
                0x0000000000013b06                gpio_hal_arch_no_port_interrupt_disable
                0x0000000000013b4f                gpio_hal_arch_no_port_pin_cfg_set
                0x0000000000013b81                gpio_hal_arch_no_port_pin_cfg_get
                0x0000000000013bb1                gpio_hal_arch_no_port_pin_set_input
                0x0000000000013bc0                gpio_hal_arch_no_port_pin_set_output
                0x0000000000013bcf                gpio_hal_arch_no_port_set_pin
                0x0000000000013bef                gpio_hal_arch_no_port_clear_pin
                0x0000000000013c0f                gpio_hal_arch_no_port_read_pin
                0x0000000000013c39                gpio_hal_arch_no_port_write_pin
                0x0000000000013c5f                gpio_hal_arch_no_port_set_pins
                0x0000000000013ca9                gpio_hal_arch_no_port_clear_pins
                0x0000000000013cf3                gpio_hal_arch_no_port_read_pins
                0x0000000000013d3e                gpio_hal_arch_no_port_write_pins
 .text          0x0000000000013da2       0x94 build/cooja/mtype580.a(buttons.o)
 .text          0x0000000000013e36      0x22b build/cooja/mtype580.a(deployment.o)
                0x0000000000013e36                deployment_init
                0x0000000000013e93                deployment_node_count
                0x0000000000013e9f                deployment_id_from_lladdr
                0x0000000000013f00                deployment_lladdr_from_id
                0x0000000000013f69                deployment_id_from_iid
                0x0000000000013fb9                deployment_iid_from_id
                0x0000000000014016                deployment_id_from_index
 .text          0x0000000000014061      0x3ad build/cooja/mtype580.a(contiki-main.o)
                0x0000000000014061                main
 .text          0x000000000001440e       0xb3 build/cooja/mtype580.a(autostart.o)
                0x000000000001440e                autostart_start
                0x000000000001446a                autostart_exit
 .text          0x00000000000144c1      0x4dd build/cooja/mtype580.a(log.o)
                0x00000000000144c1                log_6addr
                0x0000000000014520                log_6addr_compact_snprint
                0x00000000000145e5                log_6addr_compact
                0x0000000000014644                log_lladdr
                0x00000000000146c1                log_lladdr_compact
                0x0000000000014726                log_bytes
                0x000000000001477e                log_set_level
                0x0000000000014884                log_get_level
                0x0000000000014937                log_level_to_str
 .text          0x000000000001499e      0x189 build/cooja/mtype580.a(energest.o)
                0x00000000000149f9                energest_init
                0x0000000000014a68                energest_flush
                0x0000000000014af8                energest_get_total_time
 .text          0x0000000000014b27      0x540 build/cooja/mtype580.a(etimer.o)
                0x0000000000014dc7                etimer_request_poll
                0x0000000000014e71                etimer_set
                0x0000000000014ea3                etimer_reset_with_new_interval
                0x0000000000014eda                etimer_reset
                0x0000000000014f01                etimer_restart
                0x0000000000014f28                etimer_adjust
                0x0000000000014f55                etimer_expired
                0x0000000000014f70                etimer_expiration_time
                0x0000000000014f8c                etimer_start_time
                0x0000000000014f9d                etimer_pending
                0x0000000000014fb3                etimer_next_expiration_time
                0x0000000000014fd0                etimer_stop
 .text          0x0000000000015067        0xc build/cooja/mtype580.a(node-id.o)
                0x0000000000015067                node_id_init
 .text          0x0000000000015073      0x421 build/cooja/mtype580.a(ctimer.o)
                0x00000000000151d1                ctimer_init
                0x0000000000015202                ctimer_set
                0x0000000000015242                ctimer_set_with_process
                0x00000000000152f8                ctimer_reset
                0x0000000000015365                ctimer_restart
                0x00000000000153d2                ctimer_stop
                0x000000000001542c                ctimer_expired
 .text          0x0000000000015494      0x641 build/cooja/mtype580.a(process.o)
                0x0000000000015494                process_alloc_event
                0x00000000000154aa                process_start
                0x000000000001570f                process_exit
                0x0000000000015737                process_init
                0x0000000000015927                process_run
                0x0000000000015958                process_nevents
                0x0000000000015974                process_post
                0x0000000000015a38                process_post_synch
                0x0000000000015a82                process_poll
                0x0000000000015abb                process_is_running
 .text          0x0000000000015ad5       0xf6 build/cooja/mtype580.a(rtimer.o)
                0x0000000000015ad5                rtimer_init
                0x0000000000015ae1                rtimer_set
                0x0000000000015b5e                rtimer_run_next
 .text          0x0000000000015bcb       0xf3 build/cooja/mtype580.a(timer.o)
                0x0000000000015bcb                timer_set
                0x0000000000015bf9                timer_reset
                0x0000000000015c31                timer_restart
                0x0000000000015c4f                timer_expired
                0x0000000000015c8c                timer_remaining
 .text          0x0000000000015cbe      0x367 build/cooja/mtype580.a(list.o)
                0x0000000000015cbe                list_init
                0x0000000000015cd4                list_head
                0x0000000000015ce5                list_copy
                0x0000000000015d02                list_tail
                0x0000000000015d47                list_add
                0x0000000000015da7                list_push
                0x0000000000015de6                list_chop
                0x0000000000015e6f                list_pop
                0x0000000000015ea5                list_remove
                0x0000000000015f2d                list_length
                0x0000000000015f64                list_insert
                0x0000000000015fc3                list_item_next
                0x0000000000015fe2                list_contains
 .text          0x0000000000016025      0x54c build/cooja/mtype580.a(button-hal.o)
                0x00000000000161da                button_hal_get_by_id
                0x0000000000016224                button_hal_get_by_index
                0x0000000000016257                button_hal_get_state
                0x00000000000162b6                button_hal_init
 .text          0x0000000000016571      0x217 build/cooja/mtype580.a(serial-line.o)
                0x0000000000016571                serial_line_input_byte
                0x0000000000016755                serial_line_init
 .text          0x0000000000016788      0x164 build/cooja/mtype580.a(gpio-hal.o)
                0x0000000000016788                gpio_hal_register_handler
                0x00000000000167ad                gpio_hal_event_handler
                0x0000000000016813                gpio_hal_init
                0x000000000001682e                gpio_hal_arch_port_toggle_pin
                0x0000000000016861                gpio_hal_arch_port_toggle_pins
                0x000000000001688e                gpio_hal_arch_no_port_toggle_pin
                0x00000000000168c4                gpio_hal_arch_no_port_toggle_pins
 .text          0x00000000000168ec      0x330 build/cooja/mtype580.a(queuebuf.o)
                0x00000000000168fd                queuebuf_init
                0x000000000001691c                queuebuf_numfree
                0x000000000001692e                queuebuf_new_from_packetbuf
                0x00000000000169d7                queuebuf_update_attr_from_packetbuf
                0x0000000000016a16                queuebuf_update_from_packetbuf
                0x0000000000016a6e                queuebuf_free
                0x0000000000016abd                queuebuf_to_packetbuf
                0x0000000000016b2f                queuebuf_dataptr
                0x0000000000016b6f                queuebuf_datalen
                0x0000000000016b9b                queuebuf_addr
                0x0000000000016bde                queuebuf_attr
                0x0000000000016c15                queuebuf_debug_print
 .text          0x0000000000016c1c      0x458 build/cooja/mtype580.a(packetbuf.o)
                0x0000000000016c1c                packetbuf_clear
                0x0000000000016c46                packetbuf_copyfrom
                0x0000000000016c9c                packetbuf_copyto
                0x0000000000016d3f                packetbuf_hdralloc
                0x0000000000016dca                packetbuf_hdrreduce
                0x0000000000016e16                packetbuf_set_datalen
                0x0000000000016e2e                packetbuf_dataptr
                0x0000000000016e50                packetbuf_hdrptr
                0x0000000000016e5d                packetbuf_datalen
                0x0000000000016e6a                packetbuf_hdrlen
                0x0000000000016e82                packetbuf_totlen
                0x0000000000016ea1                packetbuf_remaininglen
                0x0000000000016eb5                packetbuf_attr_clear
                0x0000000000016f15                packetbuf_attr_copyto
                0x0000000000016f5c                packetbuf_attr_copyfrom
                0x0000000000016fa3                packetbuf_set_attr
                0x0000000000016fcf                packetbuf_attr
                0x0000000000016fec                packetbuf_set_addr
                0x000000000001702e                packetbuf_addr
                0x0000000000017054                packetbuf_holds_broadcast
 .text          0x0000000000017074      0x11b build/cooja/mtype580.a(netstack.o)
                0x0000000000017074                netstack_process_ip_callback
                0x0000000000017111                netstack_ip_packet_processor_add
                0x000000000001713d                uip_ds6_ip_packet_processor_rm
                0x0000000000017162                netstack_init
 .text          0x000000000001718f       0x74 build/cooja/mtype580.a(linkaddr.o)
                0x000000000001718f                linkaddr_copy
                0x00000000000171ac                linkaddr_cmp
                0x00000000000171de                linkaddr_set_node_addr
 .text          0x0000000000017203     0x29c5 build/cooja/mtype580.a(tsch.o)
                0x0000000000017203                tsch_set_coordinator
                0x0000000000017242                tsch_set_pan_secured
                0x0000000000017259                tsch_set_join_priority
                0x0000000000017272                tsch_set_ka_timeout
                0x0000000000017294                tsch_set_eb_period
                0x00000000000177f5                tsch_schedule_keepalive
                0x0000000000018057                tsch_disassociate
                0x00000000000187e7                tsch_scan
 .text          0x0000000000019bc8      0x9a2 build/cooja/mtype580.a(uip-sr.o)
                0x0000000000019bc8                uip_sr_num_nodes
                0x0000000000019c6b                uip_sr_get_node
                0x0000000000019ccf                uip_sr_is_addr_reachable
                0x0000000000019d93                uip_sr_expire_parent
                0x0000000000019df2                uip_sr_update_node
                0x000000000001a0cf                uip_sr_init
                0x000000000001a0fb                uip_sr_node_head
                0x000000000001a110                uip_sr_node_next
                0x000000000001a12a                uip_sr_periodic
                0x000000000001a2f0                uip_sr_free_all
                0x000000000001a367                uip_sr_link_snprint
 .text          0x000000000001a56a     0x10dd build/cooja/mtype580.a(uip-ds6.o)
                0x000000000001a56a                uip_ds6_default_prefix
                0x000000000001a577                uip_ds6_set_default_prefix
                0x000000000001a59b                uip_ds6_init
                0x000000000001a9fe                uip_ds6_periodic
                0x000000000001aa9c                uip_ds6_list_loop
                0x000000000001ab81                uip_ds6_prefix_add
                0x000000000001ad23                uip_ds6_prefix_rm
                0x000000000001ad3d                uip_ds6_prefix_lookup
                0x000000000001ad90                uip_ds6_is_addr_onlink
                0x000000000001ae20                uip_ds6_addr_add
                0x000000000001af61                uip_ds6_addr_rm
                0x000000000001b015                uip_ds6_addr_lookup
                0x000000000001b063                uip_ds6_get_link_local
                0x000000000001b104                uip_ds6_get_global
                0x000000000001b1a5                uip_ds6_maddr_add
                0x000000000001b21a                uip_ds6_maddr_rm
                0x000000000001b234                uip_ds6_maddr_lookup
                0x000000000001b285                uip_ds6_aaddr_add
                0x000000000001b2fa                uip_ds6_aaddr_rm
                0x000000000001b314                uip_ds6_aaddr_lookup
                0x000000000001b365                uip_ds6_select_src
                0x000000000001b4eb                uip_ds6_set_addr_iid
                0x000000000001b520                uip_ds6_set_lladdr_from_iid
                0x000000000001b553                get_match_length
                0x000000000001b5fd                uip_ds6_compute_reachable_time
 .text          0x000000000001b647      0x830 build/cooja/mtype580.a(tcpip.o)
                0x000000000001b673                tcpip_output
                0x000000000001b6ff                udp_attach
                0x000000000001b729                udp_new
                0x000000000001b780                udp_broadcast_new
                0x000000000001b91d                tcpip_input
                0x000000000001bae0                tcpip_ipv6_output
                0x000000000001bd36                tcpip_poll_udp
                0x000000000001bd60                tcpip_uipcall
 .text          0x000000000001be77      0x6dd build/cooja/mtype580.a(uip-ds6-route.o)
                0x000000000001becc                uip_ds6_route_init
                0x000000000001beee                uip_ds6_route_nexthop
                0x000000000001befd                uip_ds6_route_head
                0x000000000001bf08                uip_ds6_route_next
                0x000000000001bf17                uip_ds6_route_is_nexthop
                0x000000000001bf26                uip_ds6_route_num_routes
                0x000000000001bf31                uip_ds6_route_lookup
                0x000000000001bf40                uip_ds6_route_add
                0x000000000001bf58                uip_ds6_route_rm
                0x000000000001bf63                uip_ds6_route_rm_by_nexthop
                0x000000000001bf6e                uip_ds6_defrt_head
                0x000000000001bf83                uip_ds6_defrt_add
                0x000000000001c16e                uip_ds6_defrt_rm
                0x000000000001c222                uip_ds6_defrt_lookup
                0x000000000001c295                uip_ds6_defrt_choose
                0x000000000001c497                uip_ds6_defrt_periodic
 .text          0x000000000001c554      0x6a9 build/cooja/mtype580.a(uip-ds6-nbr.o)
                0x000000000001c554                uip_ds6_neighbors_init
                0x000000000001c579                uip_ds6_nbr_add
                0x000000000001c78d                uip_ds6_nbr_rm
                0x000000000001c7e6                uip_ds6_nbr_update_ll
                0x000000000001ca38                uip_ds6_nbr_get_ipaddr
                0x000000000001ca54                uip_ds6_nbr_get_ll
                0x000000000001ca78                uip_ds6_nbr_num
                0x000000000001cac6                uip_ds6_nbr_head
                0x000000000001cadb                uip_ds6_nbr_next
                0x000000000001caff                uip_ds6_nbr_lookup
                0x000000000001cb64                uip_ds6_nbr_ll_lookup
                0x000000000001cb88                uip_ds6_nbr_ipaddr_from_lladdr
                0x000000000001cbb8                uip_ds6_nbr_lladdr_from_ipaddr
                0x000000000001cbf0                uip_ds6_link_callback
 .text          0x000000000001cbfd     0x1ee1 build/cooja/mtype580.a(uip6.o)
                0x000000000001ccbd                uip_chksum
                0x000000000001cd9f                uip_icmp6chksum
                0x000000000001cdaf                uip_udpchksum
                0x000000000001cdbf                uip_init
                0x000000000001ce21                uip_remove_ext_hdr
                0x000000000001cf5b                uip_udp_new
                0x000000000001d369                uip_process
                0x000000000001e96d                uip_htons
                0x000000000001e98c                uip_htonl
                0x000000000001e9d0                uip_send
 .text          0x000000000001eade      0xbea build/cooja/mtype580.a(uip-nd6.o)
                0x000000000001f6b5                uip_nd6_init
 .text          0x000000000001f6c8      0x46d build/cooja/mtype580.a(simple-udp.o)
                0x000000000001f6f5                simple_udp_send
                0x000000000001f763                simple_udp_sendto
                0x000000000001f7d1                simple_udp_sendto_port
                0x000000000001f83d                simple_udp_register
 .text          0x000000000001fb35     0x33af build/cooja/mtype580.a(sicslowpan.o)
                0x00000000000202fe                netstack_sniffer_add
                0x0000000000020314                netstack_sniffer_remove
                0x0000000000022eb5                sicslowpan_init
                0x0000000000022ed8                sicslowpan_get_last_rssi
 .text          0x0000000000022ee4      0x590 build/cooja/mtype580.a(uiplib.o)
                0x0000000000022ee4                uiplib_ip6addrconv
                0x00000000000230c6                uiplib_ip4addrconv
                0x0000000000023194                uiplib_ipaddr_print
                0x00000000000231f3                uiplib_ipaddr_snprint
 .text          0x0000000000023474      0x831 build/cooja/mtype580.a(rpl.o)
                0x0000000000023474                rpl_lollipop_greater_than
                0x00000000000234d4                rpl_get_global_address
                0x0000000000023670                rpl_link_callback
                0x000000000002376c                rpl_has_joined
                0x000000000002379b                rpl_is_reachable
                0x0000000000023839                rpl_reset_prefix
                0x0000000000023927                rpl_set_prefix_from_addr
                0x0000000000023aee                rpl_set_prefix
                0x0000000000023c82                rpl_set_leaf_only
                0x0000000000023c98                rpl_get_leaf_only
 .text          0x0000000000023ca5      0x5dd build/cooja/mtype580.a(rpl-dag-root.o)
                0x0000000000023ca5                rpl_dag_root_print_links
                0x000000000002402e                rpl_dag_root_set_prefix
                0x0000000000024066                rpl_dag_root_start
                0x0000000000024246                rpl_dag_root_is_root
 .text          0x0000000000024282       0x35 build/cooja/mtype580.a(watchdog.o)
                0x0000000000024282                watchdog_init
                0x0000000000024289                watchdog_start
                0x0000000000024290                watchdog_periodic
                0x00000000000242a9                watchdog_stop
                0x00000000000242b0                watchdog_reboot
 .text          0x00000000000242b7       0x51 build/cooja/mtype580.a(int-master.o)
                0x00000000000242b7                int_master_enable
                0x00000000000242c8                int_master_read_and_disable
                0x00000000000242e4                int_master_status_set
                0x00000000000242f7                int_master_is_enabled
 .text          0x0000000000024308        0x0 build/cooja/mtype580.a(cooja16.o)
 .text          0x0000000000024308      0x58c build/cooja/mtype580.a(simple-energest)
                0x0000000000024813                simple_energest_init
 .text          0x0000000000024894      0x3dd build/cooja/mtype580.a(orchestra.o)
                0x0000000000024926                orchestra_callback_child_added
                0x0000000000024982                orchestra_callback_child_removed
                0x00000000000249de                orchestra_callback_packet_ready
                0x0000000000024ac1                orchestra_callback_new_time_source
                0x0000000000024b3f                orchestra_init
 .text          0x0000000000024c71      0x271 build/cooja/mtype580.a(orchestra-rule-)
 .text          0x0000000000024ee2      0x11a build/cooja/mtype580.a(stimer.o)
                0x0000000000024ee2                stimer_set
                0x0000000000024f10                stimer_reset
                0x0000000000024f48                stimer_restart
                0x0000000000024f66                stimer_expired
                0x0000000000024fa7                stimer_remaining
                0x0000000000024fd9                stimer_elapsed
 .text          0x0000000000024ffc      0x236 build/cooja/mtype580.a(ringbufindex.o)
                0x0000000000024ffc                ringbufindex_init
                0x0000000000025029                ringbufindex_put
                0x0000000000025090                ringbufindex_peek_put
                0x00000000000250de                ringbufindex_get
                0x0000000000025147                ringbufindex_peek_get
                0x000000000002518b                ringbufindex_size
                0x00000000000251a2                ringbufindex_elements
                0x00000000000251d0                ringbufindex_full
                0x0000000000025210                ringbufindex_empty
 .text          0x0000000000025232      0x206 build/cooja/mtype580.a(memb.o)
                0x0000000000025232                memb_init
                0x0000000000025291                memb_alloc
                0x0000000000025307                memb_free
                0x0000000000025396                memb_inmemb
                0x00000000000253e9                memb_numfree
 .text          0x0000000000025438      0x189 build/cooja/mtype580.a(ringbuf.o)
                0x0000000000025438                ringbuf_init
                0x0000000000025475                ringbuf_put
                0x0000000000025500                ringbuf_get
                0x000000000002557a                ringbuf_size
                0x0000000000025592                ringbuf_elements
 .text          0x00000000000255c1      0x9ac build/cooja/mtype580.a(nbr-table.o)
                0x0000000000025b69                nbr_table_register
                0x0000000000025bf7                nbr_table_is_registered
                0x0000000000025c4a                nbr_table_head
                0x0000000000025cb1                nbr_table_next
                0x0000000000025d27                nbr_table_add_lladdr
                0x0000000000025e2a                nbr_table_get_from_lladdr
                0x0000000000025e82                nbr_table_remove
                0x0000000000025ed2                nbr_table_lock
                0x0000000000025f00                nbr_table_unlock
                0x0000000000025f2e                nbr_table_get_lladdr
 .text          0x0000000000025f6d      0x410 build/cooja/mtype580.a(link-stats.o)
                0x0000000000025f6d                link_stats_from_lladdr
                0x0000000000025f91                link_stats_get_lladdr
                0x0000000000025fb5                link_stats_is_fresh
                0x0000000000025fff                guess_etx_from_rssi
                0x0000000000026080                link_stats_packet_sent
                0x00000000000261be                link_stats_input_callback
                0x00000000000262eb                link_stats_reset
                0x0000000000026342                link_stats_init
 .text          0x000000000002637d      0x1da build/cooja/mtype580.a(mac-sequence.o)
                0x000000000002637d                mac_sequence_is_duplicate
                0x000000000002645e                mac_sequence_register_seqno
 .text          0x0000000000026557       0x33 build/cooja/mtype580.a(mac.o)
                0x0000000000026557                mac_call_sent_callback
 .text          0x000000000002658a      0x442 build/cooja/mtype580.a(framer-802154.o)
                0x0000000000026721                framer_802154_setup_params
 .text          0x00000000000269cc      0xc84 build/cooja/mtype580.a(frame802154.o)
                0x00000000000269fa                frame802154_get_pan_id
                0x0000000000026a07                frame802154_set_pan_id
                0x0000000000026a1f                frame802154_has_panid
                0x0000000000026bfa                frame802154_check_dest_panid
                0x0000000000026c95                frame802154_is_broadcast_addr
                0x0000000000026ce8                frame802154_extract_linkaddr
                0x0000000000026f7e                frame802154_hdrlen
                0x0000000000026ff9                frame802154_create_fcf
                0x00000000000270c7                frame802154_create
                0x000000000002726d                frame802154_parse_fcf
                0x0000000000027360                frame802154_parse
 .text          0x0000000000027650      0xcd6 build/cooja/mtype580.a(tsch-queue.o)
                0x0000000000027650                tsch_queue_add_nbr
                0x000000000002775a                tsch_queue_get_nbr
                0x000000000002778e                tsch_queue_get_time_source
                0x00000000000277ee                tsch_queue_get_nbr_address
                0x0000000000027812                tsch_queue_update_time_source
                0x0000000000027aa1                tsch_queue_add_packet
                0x0000000000027c59                tsch_queue_global_packet_count
                0x0000000000027c74                tsch_queue_nbr_packet_count
                0x0000000000027ca2                tsch_queue_remove_packet_from_queue
                0x0000000000027cfb                tsch_queue_free_packet
                0x0000000000027d33                tsch_queue_packet_sent
                0x0000000000027dfd                tsch_queue_reset
                0x0000000000027e67                tsch_queue_free_unused_neighbors
                0x0000000000027ef8                tsch_queue_is_empty
                0x0000000000027f38                tsch_queue_get_packet_for_nbr
                0x0000000000028068                tsch_queue_get_packet_for_dest_addr
                0x00000000000280a8                tsch_queue_get_unicast_packet_for_any
                0x0000000000028157                tsch_queue_backoff_expired
                0x0000000000028171                tsch_queue_backoff_reset
                0x000000000002818c                tsch_queue_backoff_inc
                0x00000000000281fe                tsch_queue_update_all_backoff_windows
                0x00000000000282c7                tsch_queue_init
 .text          0x0000000000028326        0x0 build/cooja/mtype580.a(tsch-timeslot-t)
 .text          0x0000000000028326     0x1190 build/cooja/mtype580.a(tsch-schedule.o)
                0x0000000000028326                tsch_schedule_add_slotframe
                0x000000000002846d                tsch_schedule_remove_all_slotframes
                0x00000000000284af                tsch_schedule_remove_slotframe
                0x0000000000028595                tsch_schedule_get_slotframe_by_handle
                0x00000000000285f3                tsch_schedule_get_link_by_handle
                0x00000000000287c4                tsch_schedule_add_link
                0x0000000000028b05                tsch_schedule_remove_link
                0x0000000000028d62                tsch_schedule_remove_link_by_timeslot
                0x0000000000028e07                tsch_schedule_get_link_by_timeslot
                0x0000000000028f63                tsch_schedule_get_next_active_link
                0x0000000000029219                tsch_schedule_init
                0x0000000000029260                tsch_schedule_create_minimal
                0x00000000000292b9                tsch_schedule_slotframe_head
                0x00000000000292ce                tsch_schedule_slotframe_next
                0x00000000000292e8                tsch_schedule_print
 .text          0x00000000000294b6     0x1bfd build/cooja/mtype580.a(tsch-slot-opera)
                0x00000000000294e3                tsch_is_locked
                0x00000000000294ef                tsch_get_lock
                0x0000000000029576                tsch_release_lock
                0x00000000000298f6                tsch_get_network_uptime_ticks
                0x000000000002af16                tsch_slot_operation_start
                0x000000000002b03c                tsch_slot_operation_sync
 .text          0x000000000002b0b3      0xaaa build/cooja/mtype580.a(tsch-packet.o)
                0x000000000002b0b3                tsch_packet_eackbuf_set_attr
                0x000000000002b0de                tsch_packet_eackbuf_attr
                0x000000000002b0fe                tsch_packet_create_eack
                0x000000000002b2f2                tsch_packet_parse_eack
                0x000000000002b4a9                tsch_packet_create_eb
                0x000000000002b7a7                tsch_packet_update_eb
                0x000000000002b82a                tsch_packet_parse_eb
                0x000000000002bb20                tsch_packet_set_frame_pending
                0x000000000002bb40                tsch_packet_get_frame_pending
 .text          0x000000000002bb5d      0x718 build/cooja/mtype580.a(tsch-security.o)
                0x000000000002bcae                tsch_security_mic_len
                0x000000000002bceb                tsch_security_secure_frame
                0x000000000002bfb8                tsch_security_parse_frame
                0x000000000002c269                tsch_security_set_packetbuf_attr
 .text          0x000000000002c275      0x157 build/cooja/mtype580.a(tsch-rpl.o)
                0x000000000002c275                tsch_rpl_callback_ka_sent
                0x000000000002c2b4                tsch_rpl_callback_joining_network
                0x000000000002c2bb                tsch_rpl_callback_leaving_network
                0x000000000002c2db                tsch_rpl_callback_new_dio_interval
                0x000000000002c37c                tsch_rpl_callback_parent_switch
                0x000000000002c3b9                tsch_rpl_check_dodag_joined
 .text          0x000000000002c3cc      0x398 build/cooja/mtype580.a(tsch-adaptive-t)
                0x000000000002c3cc                tsch_adaptive_timesync_get_drift_ppm
                0x000000000002c51b                tsch_timesync_update
                0x000000000002c6c0                tsch_timesync_adaptive_compensate
                0x000000000002c72a                tsch_adaptive_timesync_reset
 .text          0x000000000002c764      0x55f build/cooja/mtype580.a(uipbuf.o)
                0x000000000002c764                uipbuf_clear
                0x000000000002c792                uipbuf_add_ext_hdr
                0x000000000002c826                uipbuf_set_len
                0x000000000002c854                uipbuf_set_len_field
                0x000000000002c883                uipbuf_get_len_field
                0x000000000002c8aa                uipbuf_get_next_header
                0x000000000002c9fd                uipbuf_get_last_header
                0x000000000002ca92                uipbuf_search_header
                0x000000000002cb5d                uipbuf_get_attr
                0x000000000002cb8a                uipbuf_set_attr
                0x000000000002cbc6                uipbuf_set_default_attr
                0x000000000002cc02                uipbuf_clear_attr
                0x000000000002cc23                uipbuf_set_attr_flag
                0x000000000002cc42                uipbuf_clr_attr_flag
                0x000000000002cc67                uipbuf_is_attr_flag
                0x000000000002cc88                uipbuf_init
 .text          0x000000000002ccc3      0xca3 build/cooja/mtype580.a(uip-icmp6.o)
                0x000000000002cd3c                uip_icmp6_input
                0x000000000002cd96                uip_icmp6_register_input_handler
                0x000000000002d0a1                uip_icmp6_error_output
                0x000000000002d512                uip_icmp6_send
                0x000000000002d8df                uip_icmp6_echo_reply_callback_add
                0x000000000002d922                uip_icmp6_echo_reply_callback_rm
                0x000000000002d947                uip_icmp6_init
 .text          0x000000000002d966      0x197 build/cooja/mtype580.a(uip-packetqueue)
                0x000000000002d99e                uip_packetqueue_new
                0x000000000002d9b4                uip_packetqueue_alloc
                0x000000000002da2a                uip_packetqueue_free
                0x000000000002da7b                uip_packetqueue_buf
                0x000000000002daa3                uip_packetqueue_buflen
                0x000000000002dace                uip_packetqueue_set_buflen
 .text          0x000000000002dafd      0x13c build/cooja/mtype580.a(uip-udp-packet.)
                0x000000000002dafd                uip_udp_packet_send
                0x000000000002db78                uip_udp_packet_sendto
 .text          0x000000000002dc39     0x2271 build/cooja/mtype580.a(rpl-icmp6.o)
                0x000000000002ddbd                rpl_icmp6_update_nbr_table
                0x000000000002dfef                rpl_icmp6_dis_output
                0x000000000002eabe                rpl_icmp6_dio_output
                0x000000000002f6d1                rpl_icmp6_dao_output
                0x000000000002fd45                rpl_icmp6_dao_ack_output
                0x000000000002fe73                rpl_icmp6_init
 .text          0x000000000002feaa      0xe1b build/cooja/mtype580.a(rpl-neighbor.o)
                0x000000000002ff39                rpl_neighbor_snprint
                0x0000000000030270                rpl_neighbor_print_list
                0x00000000000304ce                rpl_neighbor_count
                0x00000000000305b1                rpl_neighbor_get_from_lladdr
                0x00000000000305d8                rpl_neighbor_is_acceptable_parent
                0x0000000000030620                rpl_neighbor_get_link_metric
                0x0000000000030668                rpl_neighbor_rank_via_nbr
                0x00000000000306b0                rpl_neighbor_get_lladdr
                0x00000000000306d7                rpl_neighbor_get_ipaddr
                0x0000000000030701                rpl_neighbor_get_link_stats
                0x000000000003072b                rpl_neighbor_is_fresh
                0x0000000000030755                rpl_neighbor_is_reachable
                0x00000000000307a9                rpl_neighbor_is_parent
                0x00000000000307de                rpl_neighbor_set_preferred_parent
                0x0000000000030972                rpl_neighbor_remove_all
                0x0000000000030a12                rpl_neighbor_get_from_ipaddr
                0x0000000000030b43                rpl_neighbor_select_best
                0x0000000000030ca5                rpl_neighbor_init
 .text          0x0000000000030cc5     0x1bbf build/cooja/mtype580.a(rpl-dag.o)
                0x0000000000030cc5                rpl_dag_state_to_str
                0x0000000000030d12                rpl_dag_get_root_ipaddr
                0x0000000000030d58                rpl_dag_leave
                0x0000000000030e87                rpl_dag_poison_and_leave
                0x0000000000030ea1                rpl_dag_periodic
                0x0000000000030fec                rpl_is_addr_in_our_dag
                0x0000000000031041                rpl_get_default_instance
                0x0000000000031064                rpl_get_any_dag
                0x00000000000310c9                rpl_refresh_routes
                0x0000000000031198                rpl_global_repair
                0x0000000000031342                rpl_local_repair
                0x00000000000313e6                rpl_dag_ready_to_advertise
                0x000000000003143a                rpl_dag_update_state
                0x00000000000322b1                rpl_process_dio
                0x0000000000032390                rpl_process_dis
                0x000000000003241b                rpl_process_dao
                0x0000000000032502                rpl_process_dao_ack
                0x00000000000325f7                rpl_process_hbh
                0x0000000000032652                rpl_dag_init_root
                0x0000000000032864                rpl_dag_init
 .text          0x0000000000032884      0xe63 build/cooja/mtype580.a(rpl-timers.o)
                0x0000000000032884                rpl_timers_schedule_periodic_dis
                0x0000000000032a88                rpl_timers_dio_reset
                0x0000000000032c4a                rpl_timers_schedule_unicast_dio
                0x0000000000032e15                rpl_timers_schedule_dao
                0x0000000000032f10                rpl_timers_schedule_dao_ack
                0x0000000000032fc4                rpl_timers_notify_dao_ack
                0x000000000003302e                get_probing_delay
                0x0000000000033077                get_probing_target
                0x00000000000333d5                rpl_schedule_probing
                0x0000000000033412                rpl_schedule_probing_now
                0x0000000000033495                rpl_timers_unschedule_leaving
                0x00000000000334d5                rpl_timers_schedule_leaving
                0x0000000000033526                rpl_timers_init
                0x00000000000335ed                rpl_timers_stop_dag_timers
                0x0000000000033676                rpl_timers_unschedule_state_update
                0x000000000003369c                rpl_timers_schedule_state_update
 .text          0x00000000000336e7     0x1483 build/cooja/mtype580.a(rpl-ext-header.)
                0x00000000000336e7                rpl_ext_header_srh_get_next_hop
                0x00000000000337f1                rpl_ext_header_srh_update
                0x000000000003423b                rpl_ext_header_hbh_update
                0x00000000000348c8                rpl_ext_header_update
                0x000000000003496e                rpl_ext_header_remove
 .text          0x0000000000034b6a      0x235 build/cooja/mtype580.a(rpl-nbr-policy.)
                0x0000000000034d4d                rpl_nbr_policy_find_removable
 .text          0x0000000000034d9f      0x392 build/cooja/mtype580.a(rpl-mrhof.o)
 .text          0x0000000000035131      0x234 build/cooja/mtype580.a(orchestra-rule-)
 .text          0x0000000000035365       0xa8 build/cooja/mtype580.a(orchestra-rule-)
 .text          0x000000000003540d      0x4e2 build/cooja/mtype580.a(ccm-star.o)
 .text          0x00000000000358ef      0x681 build/cooja/mtype580.a(aes-128.o)
 .text          0x0000000000035f70     0x10bd build/cooja/mtype580.a(frame802154e-ie)
                0x00000000000360a5                frame80215e_create_ie_header_ack_nack_time_correction
                0x000000000003613f                frame80215e_create_ie_header_list_termination_1
                0x0000000000036190                frame80215e_create_ie_header_list_termination_2
                0x00000000000361e1                frame80215e_create_ie_payload_list_termination
                0x0000000000036232                frame80215e_create_ie_mlme
                0x0000000000036289                frame80215e_create_ie_tsch_synchronization
                0x0000000000036357                frame80215e_create_ie_tsch_slotframe_and_link
                0x000000000003659d                frame80215e_create_ie_tsch_timeslot
                0x0000000000036693                frame80215e_create_ie_tsch_channel_hopping_sequence
                0x0000000000036d06                frame802154e_parse_information_elements
 .text          0x000000000003702d        0x0 /usr/lib/gcc/x86_64-linux-gnu/7/crtendS.o
 .text          0x000000000003702d        0x0 /usr/lib/gcc/x86_64-linux-gnu/7/../../../x86_64-linux-gnu/crtn.o
 *(.gnu.warning)

.fini           0x0000000000037030        0x9
 *(SORT_NONE(.fini))
 .fini          0x0000000000037030        0x4 /usr/lib/gcc/x86_64-linux-gnu/7/../../../x86_64-linux-gnu/crti.o
                0x0000000000037030                _fini
 .fini          0x0000000000037034        0x5 /usr/lib/gcc/x86_64-linux-gnu/7/../../../x86_64-linux-gnu/crtn.o
                [!provide]                        PROVIDE (__etext = .)
                [!provide]                        PROVIDE (_etext = .)
                [!provide]                        PROVIDE (etext = .)

.rodata         0x0000000000037040     0x3300
 *(.rodata .rodata.* .gnu.linkonce.r.*)
 .rodata        0x0000000000037040       0xd4 node.o
 .rodata        0x0000000000037114        0x6 build/cooja/mtype580.a(leds-arch.o)
                0x0000000000037114                leds_arch_leds
 .rodata        0x000000000003711a        0x4 build/cooja/mtype580.a(pir-sensor.o)
 .rodata        0x000000000003711e        0x6 build/cooja/mtype580.a(rs232.o)
 .rodata        0x0000000000037124        0xa build/cooja/mtype580.a(vib-sensor.o)
 *fill*         0x000000000003712e        0x2 
 .rodata        0x0000000000037130       0x27 build/cooja/mtype580.a(cfs-cooja.o)
 *fill*         0x0000000000037157        0x1 
 .rodata        0x0000000000037158       0x68 build/cooja/mtype580.a(cooja-radio.o)
 .rodata        0x00000000000371c0        0x8 build/cooja/mtype580.a(sensors.o)
 .rodata        0x00000000000371c8       0x14 build/cooja/mtype580.a(buttons.o)
                0x00000000000371d4                button_hal_button_count
 *fill*         0x00000000000371dc        0x4 
 .rodata        0x00000000000371e0      0x11c build/cooja/mtype580.a(contiki-main.o)
 .rodata        0x00000000000372fc       0xc4 build/cooja/mtype580.a(log.o)
 .rodata        0x00000000000373c0        0xc build/cooja/mtype580.a(etimer.o)
 .rodata        0x00000000000373cc        0xf build/cooja/mtype580.a(ctimer.o)
 .rodata        0x00000000000373db       0x13 build/cooja/mtype580.a(button-hal.o)
 .rodata        0x00000000000373ee        0xe build/cooja/mtype580.a(serial-line.o)
 *fill*         0x00000000000373fc        0x4 
 .rodata        0x0000000000037400        0x8 build/cooja/mtype580.a(linkaddr.o)
                0x0000000000037400                linkaddr_null
 .rodata        0x0000000000037408      0x8cc build/cooja/mtype580.a(tsch.o)
                0x0000000000037408                tsch_broadcast_address
                0x0000000000037410                tsch_eb_address
 *fill*         0x0000000000037cd4        0x4 
 .rodata        0x0000000000037cd8      0x106 build/cooja/mtype580.a(uip-sr.o)
 *fill*         0x0000000000037dde        0x2 
 .rodata        0x0000000000037de0      0x10f build/cooja/mtype580.a(uip-ds6.o)
 .rodata        0x0000000000037eef        0xd build/cooja/mtype580.a(tcpip.o)
 *fill*         0x0000000000037efc        0x4 
 .rodata        0x0000000000037f00      0x1b0 build/cooja/mtype580.a(uip-ds6-route.o)
 .rodata        0x00000000000380b0      0x146 build/cooja/mtype580.a(uip-ds6-nbr.o)
 *fill*         0x00000000000381f6        0x2 
 .rodata        0x00000000000381f8      0x374 build/cooja/mtype580.a(uip6.o)
 .rodata        0x000000000003856c       0x9d build/cooja/mtype580.a(uip-nd6.o)
 .rodata        0x0000000000038609       0x13 build/cooja/mtype580.a(simple-udp.o)
 .rodata        0x000000000003861c       0x1d build/cooja/mtype580.a(sicslowpan.o)
                0x000000000003861c                unc_llconf
                0x0000000000038620                unc_ctxconf
                0x0000000000038624                unc_mxconf
                0x0000000000038628                llprefix
 .rodata        0x0000000000038639       0x2d build/cooja/mtype580.a(uiplib.o)
 *fill*         0x0000000000038666        0x2 
 .rodata        0x0000000000038668       0xd8 build/cooja/mtype580.a(rpl.o)
 .rodata        0x0000000000038740       0xc8 build/cooja/mtype580.a(rpl-dag-root.o)
 *fill*         0x0000000000038808       0x18 
 .rodata        0x0000000000038820       0xaa build/cooja/mtype580.a(cooja16.o)
                0x0000000000038820                deployment_cooja16
 *fill*         0x00000000000388ca        0x6 
 .rodata        0x00000000000388d0      0x160 build/cooja/mtype580.a(simple-energest)
 .rodata        0x0000000000038a30       0x59 build/cooja/mtype580.a(orchestra.o)
 .rodata        0x0000000000038a89       0x13 build/cooja/mtype580.a(orchestra-rule-)
 *fill*         0x0000000000038a9c        0x4 
 .rodata        0x0000000000038aa0       0x7d build/cooja/mtype580.a(tsch-queue.o)
 *fill*         0x0000000000038b1d        0x3 
 .rodata        0x0000000000038b20       0x18 build/cooja/mtype580.a(tsch-timeslot-t)
                0x0000000000038b20                tsch_timeslot_timing_us_10000
 .rodata        0x0000000000038b38      0x230 build/cooja/mtype580.a(tsch-schedule.o)
 .rodata        0x0000000000038d68       0x3d build/cooja/mtype580.a(tsch-slot-opera)
 *fill*         0x0000000000038da5        0x3 
 .rodata        0x0000000000038da8       0xf1 build/cooja/mtype580.a(tsch-packet.o)
 .rodata        0x0000000000038e99        0xd build/cooja/mtype580.a(tsch-rpl.o)
 *fill*         0x0000000000038ea6        0x2 
 .rodata        0x0000000000038ea8      0x158 build/cooja/mtype580.a(uip-icmp6.o)
 .rodata        0x0000000000039000      0x5a3 build/cooja/mtype580.a(rpl-icmp6.o)
 *fill*         0x00000000000395a3        0x5 
 .rodata        0x00000000000395a8      0x15e build/cooja/mtype580.a(rpl-neighbor.o)
 *fill*         0x0000000000039706        0x2 
 .rodata        0x0000000000039708      0x62c build/cooja/mtype580.a(rpl-dag.o)
 .rodata        0x0000000000039d34       0x89 build/cooja/mtype580.a(rpl-timers.o)
 *fill*         0x0000000000039dbd        0x3 
 .rodata        0x0000000000039dc0      0x3e6 build/cooja/mtype580.a(rpl-ext-header.)
 *fill*         0x000000000003a1a6        0x2 
 .rodata        0x000000000003a1a8       0x42 build/cooja/mtype580.a(rpl-nbr-policy.)
 .rodata        0x000000000003a1ea       0x25 build/cooja/mtype580.a(rpl-mrhof.o)
 *fill*         0x000000000003a20f        0x1 
 .rodata        0x000000000003a210       0x21 build/cooja/mtype580.a(orchestra-rule-)
 .rodata        0x000000000003a231        0xf build/cooja/mtype580.a(orchestra-rule-)
 .rodata        0x000000000003a240      0x100 build/cooja/mtype580.a(aes-128.o)

.rodata1
 *(.rodata1)

.eh_frame_hdr   0x000000000003a340     0x1b34
 *(.eh_frame_hdr)
 .eh_frame_hdr  0x000000000003a340     0x1b34 node.o
                0x000000000003a340                __GNU_EH_FRAME_HDR
 *(.eh_frame_entry .eh_frame_entry.*)

.eh_frame       0x000000000003be78     0x6d8c
 *(.eh_frame)
 .eh_frame      0x000000000003be78       0x40 /usr/lib/gcc/x86_64-linux-gnu/7/../../../x86_64-linux-gnu/crti.o
 .eh_frame      0x000000000003beb8       0x18 /usr/lib/gcc/x86_64-linux-gnu/7/../../../x86_64-linux-gnu/crti.o
                                         0x30 (size before relaxing)
 .eh_frame      0x000000000003bed0       0x48 node.o
                                         0x60 (size before relaxing)
 .eh_frame      0x000000000003bf18      0x178 build/cooja/mtype580.o
                                        0x190 (size before relaxing)
 .eh_frame      0x000000000003c090       0x40 build/cooja/mtype580.a(simEnvChange.o)
                                         0x58 (size before relaxing)
 .eh_frame      0x000000000003c0d0       0x60 build/cooja/mtype580.a(cooja_mt.o)
                                         0x78 (size before relaxing)
 .eh_frame      0x000000000003c130       0x80 build/cooja/mtype580.a(cooja_mtarch.o)
                                         0x98 (size before relaxing)
 .eh_frame      0x000000000003c1b0       0xc0 build/cooja/mtype580.a(rtimer-arch.o)
                                         0xd8 (size before relaxing)
 .eh_frame      0x000000000003c270      0x160 build/cooja/mtype580.a(beep.o)
                                        0x178 (size before relaxing)
 .eh_frame      0x000000000003c3d0       0x80 build/cooja/mtype580.a(leds-arch.o)
                                         0x98 (size before relaxing)
 .eh_frame      0x000000000003c450       0x40 build/cooja/mtype580.a(moteid.o)
                                         0x58 (size before relaxing)
 .eh_frame      0x000000000003c490       0xa0 build/cooja/mtype580.a(pir-sensor.o)
                                         0xb8 (size before relaxing)
 .eh_frame      0x000000000003c530      0x100 build/cooja/mtype580.a(rs232.o)
                                        0x118 (size before relaxing)
 .eh_frame      0x000000000003c630       0xa0 build/cooja/mtype580.a(vib-sensor.o)
                                         0xb8 (size before relaxing)
 .eh_frame      0x000000000003c6d0       0xc0 build/cooja/mtype580.a(clock.o)
                                         0xd8 (size before relaxing)
 .eh_frame      0x000000000003c790      0x128 build/cooja/mtype580.a(cooja-log.o)
                                        0x140 (size before relaxing)
 .eh_frame      0x000000000003c8b8      0x160 build/cooja/mtype580.a(cfs-cooja.o)
                                        0x178 (size before relaxing)
 .eh_frame      0x000000000003ca18      0x3a0 build/cooja/mtype580.a(cooja-radio.o)
                                        0x3b8 (size before relaxing)
 .eh_frame      0x000000000003cdb8       0xa0 build/cooja/mtype580.a(eeprom.o)
                                         0xb8 (size before relaxing)
 .eh_frame      0x000000000003ce58       0x40 build/cooja/mtype580.a(random.o)
                                         0x58 (size before relaxing)
 .eh_frame      0x000000000003ce98       0xc0 build/cooja/mtype580.a(sensors.o)
                                         0xd8 (size before relaxing)
 .eh_frame      0x000000000003cf58      0x120 build/cooja/mtype580.a(leds.o)
                                        0x138 (size before relaxing)
 .eh_frame      0x000000000003d078      0x220 build/cooja/mtype580.a(gpio-hal-arch.o)
                                        0x238 (size before relaxing)
 .eh_frame      0x000000000003d298       0xa0 build/cooja/mtype580.a(buttons.o)
                                         0xb8 (size before relaxing)
 .eh_frame      0x000000000003d338       0xe8 build/cooja/mtype580.a(deployment.o)
                                        0x100 (size before relaxing)
 .eh_frame      0x000000000003d420       0x20 build/cooja/mtype580.a(contiki-main.o)
                                         0x38 (size before relaxing)
 .eh_frame      0x000000000003d440       0x40 build/cooja/mtype580.a(autostart.o)
                                         0x58 (size before relaxing)
 .eh_frame      0x000000000003d480      0x120 build/cooja/mtype580.a(log.o)
                                        0x138 (size before relaxing)
 .eh_frame      0x000000000003d5a0       0xa0 build/cooja/mtype580.a(energest.o)
                                         0xb8 (size before relaxing)
 .eh_frame      0x000000000003d640      0x1e0 build/cooja/mtype580.a(etimer.o)
                                        0x1f8 (size before relaxing)
 .eh_frame      0x000000000003d820       0x20 build/cooja/mtype580.a(node-id.o)
                                         0x38 (size before relaxing)
 .eh_frame      0x000000000003d840      0x100 build/cooja/mtype580.a(ctimer.o)
                                        0x118 (size before relaxing)
 .eh_frame      0x000000000003d940      0x1c8 build/cooja/mtype580.a(process.o)
                                        0x1e0 (size before relaxing)
 .eh_frame      0x000000000003db08       0x60 build/cooja/mtype580.a(rtimer.o)
                                         0x78 (size before relaxing)
 .eh_frame      0x000000000003db68       0xa0 build/cooja/mtype580.a(timer.o)
                                         0xb8 (size before relaxing)
 .eh_frame      0x000000000003dc08      0x1a0 build/cooja/mtype580.a(list.o)
                                        0x1b8 (size before relaxing)
 .eh_frame      0x000000000003dda8      0x160 build/cooja/mtype580.a(button-hal.o)
                                        0x178 (size before relaxing)
 .eh_frame      0x000000000003df08       0x60 build/cooja/mtype580.a(serial-line.o)
                                         0x78 (size before relaxing)
 .eh_frame      0x000000000003df68       0xe0 build/cooja/mtype580.a(gpio-hal.o)
                                         0xf8 (size before relaxing)
 .eh_frame      0x000000000003e048      0x1a0 build/cooja/mtype580.a(queuebuf.o)
                                        0x1b8 (size before relaxing)
 .eh_frame      0x000000000003e1e8      0x288 build/cooja/mtype580.a(packetbuf.o)
                                        0x2a0 (size before relaxing)
 .eh_frame      0x000000000003e470       0x80 build/cooja/mtype580.a(netstack.o)
                                         0x98 (size before relaxing)
 .eh_frame      0x000000000003e4f0       0x60 build/cooja/mtype580.a(linkaddr.o)
                                         0x78 (size before relaxing)
 .eh_frame      0x000000000003e550      0x380 build/cooja/mtype580.a(tsch.o)
                                        0x398 (size before relaxing)
 .eh_frame      0x000000000003e8d0      0x180 build/cooja/mtype580.a(uip-sr.o)
                                        0x198 (size before relaxing)
 .eh_frame      0x000000000003ea50      0x328 build/cooja/mtype580.a(uip-ds6.o)
                                        0x340 (size before relaxing)
 .eh_frame      0x000000000003ed78      0x248 build/cooja/mtype580.a(tcpip.o)
                                        0x260 (size before relaxing)
 .eh_frame      0x000000000003efc0      0x220 build/cooja/mtype580.a(uip-ds6-route.o)
                                        0x238 (size before relaxing)
 .eh_frame      0x000000000003f1e0      0x1c0 build/cooja/mtype580.a(uip-ds6-nbr.o)
                                        0x1d8 (size before relaxing)
 .eh_frame      0x000000000003f3a0      0x1e8 build/cooja/mtype580.a(uip6.o)
                                        0x200 (size before relaxing)
 .eh_frame      0x000000000003f588       0x80 build/cooja/mtype580.a(uip-nd6.o)
                                         0x98 (size before relaxing)
 .eh_frame      0x000000000003f608       0xc0 build/cooja/mtype580.a(simple-udp.o)
                                         0xd8 (size before relaxing)
 .eh_frame      0x000000000003f6c8      0x2e0 build/cooja/mtype580.a(sicslowpan.o)
                                        0x2f8 (size before relaxing)
 .eh_frame      0x000000000003f9a8       0x80 build/cooja/mtype580.a(uiplib.o)
                                         0x98 (size before relaxing)
 .eh_frame      0x000000000003fa28      0x1e0 build/cooja/mtype580.a(rpl.o)
                                        0x1f8 (size before relaxing)
 .eh_frame      0x000000000003fc08       0xa0 build/cooja/mtype580.a(rpl-dag-root.o)
                                         0xb8 (size before relaxing)
 .eh_frame      0x000000000003fca8       0xa0 build/cooja/mtype580.a(watchdog.o)
                                         0xb8 (size before relaxing)
 .eh_frame      0x000000000003fd48       0x80 build/cooja/mtype580.a(int-master.o)
                                         0x98 (size before relaxing)
 .eh_frame      0x000000000003fdc8       0xa0 build/cooja/mtype580.a(simple-energest)
                                         0xb8 (size before relaxing)
 .eh_frame      0x000000000003fe68       0xe0 build/cooja/mtype580.a(orchestra.o)
                                         0xf8 (size before relaxing)
 .eh_frame      0x000000000003ff48       0x80 build/cooja/mtype580.a(orchestra-rule-)
                                         0x98 (size before relaxing)
 .eh_frame      0x000000000003ffc8       0xc0 build/cooja/mtype580.a(stimer.o)
                                         0xd8 (size before relaxing)
 .eh_frame      0x0000000000040088      0x120 build/cooja/mtype580.a(ringbufindex.o)
                                        0x138 (size before relaxing)
 .eh_frame      0x00000000000401a8       0xa0 build/cooja/mtype580.a(memb.o)
                                         0xb8 (size before relaxing)
 .eh_frame      0x0000000000040248       0xa0 build/cooja/mtype580.a(ringbuf.o)
                                         0xb8 (size before relaxing)
 .eh_frame      0x00000000000402e8      0x2a0 build/cooja/mtype580.a(nbr-table.o)
                                        0x2b8 (size before relaxing)
 .eh_frame      0x0000000000040588      0x120 build/cooja/mtype580.a(link-stats.o)
                                        0x138 (size before relaxing)
 .eh_frame      0x00000000000406a8       0x48 build/cooja/mtype580.a(mac-sequence.o)
                                         0x60 (size before relaxing)
 .eh_frame      0x00000000000406f0       0x20 build/cooja/mtype580.a(mac.o)
                                         0x38 (size before relaxing)
 .eh_frame      0x0000000000040710       0xa8 build/cooja/mtype580.a(framer-802154.o)
                                         0xc0 (size before relaxing)
 .eh_frame      0x00000000000407b8      0x1a8 build/cooja/mtype580.a(frame802154.o)
                                        0x1c0 (size before relaxing)
 .eh_frame      0x0000000000040960      0x308 build/cooja/mtype580.a(tsch-queue.o)
                                        0x320 (size before relaxing)
 .eh_frame      0x0000000000040c68      0x250 build/cooja/mtype580.a(tsch-schedule.o)
                                        0x268 (size before relaxing)
 .eh_frame      0x0000000000040eb8      0x268 build/cooja/mtype580.a(tsch-slot-opera)
                                        0x280 (size before relaxing)
 .eh_frame      0x0000000000041120      0x128 build/cooja/mtype580.a(tsch-packet.o)
                                        0x140 (size before relaxing)
 .eh_frame      0x0000000000041248       0xc0 build/cooja/mtype580.a(tsch-security.o)
                                         0xd8 (size before relaxing)
 .eh_frame      0x0000000000041308       0xc0 build/cooja/mtype580.a(tsch-rpl.o)
                                         0xd8 (size before relaxing)
 .eh_frame      0x00000000000413c8       0xe0 build/cooja/mtype580.a(tsch-adaptive-t)
                                         0xf8 (size before relaxing)
 .eh_frame      0x00000000000414a8      0x200 build/cooja/mtype580.a(uipbuf.o)
                                        0x218 (size before relaxing)
 .eh_frame      0x00000000000416a8      0x148 build/cooja/mtype580.a(uip-icmp6.o)
                                        0x160 (size before relaxing)
 .eh_frame      0x00000000000417f0       0xe0 build/cooja/mtype580.a(uip-packetqueue)
                                         0xf8 (size before relaxing)
 .eh_frame      0x00000000000418d0       0x40 build/cooja/mtype580.a(uip-udp-packet.)
                                         0x58 (size before relaxing)
 .eh_frame      0x0000000000041910      0x1c0 build/cooja/mtype580.a(rpl-icmp6.o)
                                        0x1d8 (size before relaxing)
 .eh_frame      0x0000000000041ad0      0x2d8 build/cooja/mtype580.a(rpl-neighbor.o)
                                        0x2f0 (size before relaxing)
 .eh_frame      0x0000000000041da8      0x360 build/cooja/mtype580.a(rpl-dag.o)
                                        0x378 (size before relaxing)
 .eh_frame      0x0000000000042108      0x3a8 build/cooja/mtype580.a(rpl-timers.o)
                                        0x3c0 (size before relaxing)
 .eh_frame      0x00000000000424b0      0x128 build/cooja/mtype580.a(rpl-ext-header.)
                                        0x140 (size before relaxing)
 .eh_frame      0x00000000000425d8       0x80 build/cooja/mtype580.a(rpl-nbr-policy.)
                                         0x98 (size before relaxing)
 .eh_frame      0x0000000000042658      0x148 build/cooja/mtype580.a(rpl-mrhof.o)
                                        0x160 (size before relaxing)
 .eh_frame      0x00000000000427a0       0xe0 build/cooja/mtype580.a(orchestra-rule-)
                                         0xf8 (size before relaxing)
 .eh_frame      0x0000000000042880       0x40 build/cooja/mtype580.a(orchestra-rule-)
                                         0x58 (size before relaxing)
 .eh_frame      0x00000000000428c0       0xc0 build/cooja/mtype580.a(ccm-star.o)
                                         0xd8 (size before relaxing)
 .eh_frame      0x0000000000042980       0x60 build/cooja/mtype580.a(aes-128.o)
                                         0x78 (size before relaxing)
 .eh_frame      0x00000000000429e0      0x220 build/cooja/mtype580.a(frame802154e-ie)
                                        0x238 (size before relaxing)
 .eh_frame      0x0000000000042c00        0x4 /usr/lib/gcc/x86_64-linux-gnu/7/crtendS.o
 *(.eh_frame.*)

.gcc_except_table
 *(.gcc_except_table .gcc_except_table.*)

.gnu_extab
 *(.gnu_extab*)

.exception_ranges
 *(.exception_ranges .exception_ranges*)
                0x0000000000243570                . = DATA_SEGMENT_ALIGN (CONSTANT (MAXPAGESIZE), CONSTANT (COMMONPAGESIZE))

.eh_frame
 *(.eh_frame)
 *(.eh_frame.*)

.gnu_extab
 *(.gnu_extab)

.gcc_except_table
 *(.gcc_except_table .gcc_except_table.*)

.exception_ranges
 *(.exception_ranges .exception_ranges*)

.tdata
 *(.tdata .tdata.* .gnu.linkonce.td.*)

.tbss
 *(.tbss .tbss.* .gnu.linkonce.tb.*)
 *(.tcommon)

.preinit_array
 *(.preinit_array)

.init_array     0x0000000000243570        0x8
 *(SORT_BY_INIT_PRIORITY(.init_array.*) SORT_BY_INIT_PRIORITY(.ctors.*))
 *(.init_array EXCLUDE_FILE(*crtend?.o *crtend.o *crtbegin?.o *crtbegin.o) .ctors)
 .init_array    0x0000000000243570        0x8 /usr/lib/gcc/x86_64-linux-gnu/7/crtbeginS.o

.fini_array     0x0000000000243578        0x8
 *(SORT_BY_INIT_PRIORITY(.fini_array.*) SORT_BY_INIT_PRIORITY(.dtors.*))
 *(.fini_array EXCLUDE_FILE(*crtend?.o *crtend.o *crtbegin?.o *crtbegin.o) .dtors)
 .fini_array    0x0000000000243578        0x8 /usr/lib/gcc/x86_64-linux-gnu/7/crtbeginS.o

.ctors
 *crtbegin.o(.ctors)
 *crtbegin?.o(.ctors)
 *(EXCLUDE_FILE(*crtend?.o *crtend.o) .ctors)
 *(SORT_BY_NAME(.ctors.*))
 *(.ctors)

.dtors
 *crtbegin.o(.dtors)
 *crtbegin?.o(.dtors)
 *(EXCLUDE_FILE(*crtend?.o *crtend.o) .dtors)
 *(SORT_BY_NAME(.dtors.*))
 *(.dtors)

.jcr
 *(.jcr)

.data.rel.ro    0x0000000000243580      0x370
 *(.data.rel.ro.local* .gnu.linkonce.d.rel.ro.local.*)
 .data.rel.ro.local
                0x0000000000243580       0x10 build/cooja/mtype580.a(beep.o)
                0x0000000000243580                beep_interface
 .data.rel.ro.local
                0x0000000000243590       0x10 build/cooja/mtype580.a(leds-arch.o)
                0x0000000000243590                leds_interface
 .data.rel.ro.local
                0x00000000002435a0       0x10 build/cooja/mtype580.a(moteid.o)
                0x00000000002435a0                moteid_interface
 *fill*         0x00000000002435b0       0x10 
 .data.rel.ro.local
                0x00000000002435c0       0x40 build/cooja/mtype580.a(pir-sensor.o)
                0x00000000002435c0                pir_interface
                0x00000000002435e0                pir_sensor
 .data.rel.ro.local
                0x0000000000243600       0x10 build/cooja/mtype580.a(rs232.o)
                0x0000000000243600                rs232_interface
 *fill*         0x0000000000243610       0x10 
 .data.rel.ro.local
                0x0000000000243620       0x40 build/cooja/mtype580.a(vib-sensor.o)
                0x0000000000243620                vib_interface
                0x0000000000243640                vib_sensor
 .data.rel.ro.local
                0x0000000000243660       0x10 build/cooja/mtype580.a(clock.o)
                0x0000000000243660                clock_interface
 .data.rel.ro.local
                0x0000000000243670       0x10 build/cooja/mtype580.a(cooja-log.o)
                0x0000000000243670                simlog_interface
 .data.rel.ro.local
                0x0000000000243680       0x10 build/cooja/mtype580.a(cfs-cooja.o)
                0x0000000000243680                cfs_interface
 *fill*         0x0000000000243690       0x10 
 .data.rel.ro.local
                0x00000000002436a0       0x90 build/cooja/mtype580.a(cooja-radio.o)
                0x00000000002436a0                radio_interface
                0x00000000002436c0                cooja_radio_driver
 .data.rel.ro.local
                0x0000000000243730       0x10 build/cooja/mtype580.a(eeprom.o)
                0x0000000000243730                eeprom_interface
 .data.rel.ro.local
                0x0000000000243740       0x40 build/cooja/mtype580.a(buttons.o)
                0x0000000000243740                button_interface
                0x0000000000243760                button_sensor
 .data.rel.ro.local
                0x0000000000243780       0x38 build/cooja/mtype580.a(tsch.o)
                0x0000000000243780                tschmac_driver
 *fill*         0x00000000002437b8        0x8 
 .data.rel.ro.local
                0x00000000002437c0       0x18 build/cooja/mtype580.a(framer-802154.o)
                0x00000000002437c0                framer_802154
 *fill*         0x00000000002437d8        0x8 
 .data.rel.ro.local
                0x00000000002437e0       0x10 build/cooja/mtype580.a(ccm-star.o)
                0x00000000002437e0                ccm_star_driver
 .data.rel.ro.local
                0x00000000002437f0       0x10 build/cooja/mtype580.a(aes-128.o)
                0x00000000002437f0                aes_128_driver
 *(.data.rel.ro .data.rel.ro.* .gnu.linkonce.d.rel.ro.*)
 .data.rel.ro   0x0000000000243800        0x0 /usr/lib/gcc/x86_64-linux-gnu/7/../../../x86_64-linux-gnu/crti.o
 .data.rel.ro   0x0000000000243800       0x10 node.o
                0x0000000000243800                autostart_processes
 *fill*         0x0000000000243810       0x10 
 .data.rel.ro   0x0000000000243820       0x20 build/cooja/mtype580.a(sicslowpan.o)
                0x0000000000243820                sicslowpan_driver
 .data.rel.ro   0x0000000000243840       0xa8 build/cooja/mtype580.a(rpl.o)
                0x0000000000243840                rpl_lite_driver
 .data.rel.ro   0x00000000002438e8        0x8 build/cooja/mtype580.a(rpl-dag.o)

.dynamic        0x00000000002438f0      0x1c0
 *(.dynamic)
 .dynamic       0x00000000002438f0      0x1c0 /usr/lib/gcc/x86_64-linux-gnu/7/../../../x86_64-linux-gnu/crti.o
                0x00000000002438f0                _DYNAMIC

.got            0x0000000000243ab0      0x548
 *(.got)
 .got           0x0000000000243ab0      0x548 /usr/lib/gcc/x86_64-linux-gnu/7/../../../x86_64-linux-gnu/crti.o
 *(.igot)
                0x0000000000244fe8                . = DATA_SEGMENT_RELRO_END (., (SIZEOF (.got.plt) >= 0x18)?0x18:0x0)

.got.plt        0x0000000000244000      0xdb0
 *(.got.plt)
 .got.plt       0x0000000000244000      0xdb0 /usr/lib/gcc/x86_64-linux-gnu/7/../../../x86_64-linux-gnu/crti.o
                0x0000000000244000                _GLOBAL_OFFSET_TABLE_
 *(.igot.plt)

.data           0x0000000000244dc0      0x958
 *(.data .data.* .gnu.linkonce.d.*)
 .data          0x0000000000244dc0        0x0 /usr/lib/gcc/x86_64-linux-gnu/7/../../../x86_64-linux-gnu/crti.o
 .data          0x0000000000244dc0        0x0 /usr/lib/gcc/x86_64-linux-gnu/7/crtbeginS.o
 .data.rel.local
                0x0000000000244dc0        0x8 /usr/lib/gcc/x86_64-linux-gnu/7/crtbeginS.o
                0x0000000000244dc0                __dso_handle
 .data          0x0000000000244dc8        0x0 node.o
 *fill*         0x0000000000244dc8       0x18 
 .data.rel.local
                0x0000000000244de0       0x20 node.o
                0x0000000000244de0                app_process
 .data          0x0000000000244e00        0x0 build/cooja/mtype580.o
 .data.rel      0x0000000000244e00       0xa0 build/cooja/mtype580.o
                0x0000000000244e00                simInterfaces
                0x0000000000244e80                sensors
 .data          0x0000000000244ea0        0x0 build/cooja/mtype580.a(simEnvChange.o)
 .data          0x0000000000244ea0        0x0 build/cooja/mtype580.a(cooja_mt.o)
 .data          0x0000000000244ea0        0x0 build/cooja/mtype580.a(cooja_mtarch.o)
 .data          0x0000000000244ea0        0x0 build/cooja/mtype580.a(rtimer-arch.o)
 .data          0x0000000000244ea0        0x0 build/cooja/mtype580.a(beep.o)
 .data          0x0000000000244ea0        0x0 build/cooja/mtype580.a(leds-arch.o)
 .data          0x0000000000244ea0        0x0 build/cooja/mtype580.a(moteid.o)
 .data          0x0000000000244ea0        0x0 build/cooja/mtype580.a(pir-sensor.o)
 .data          0x0000000000244ea0        0x0 build/cooja/mtype580.a(rs232.o)
 .data          0x0000000000244ea0        0x0 build/cooja/mtype580.a(vib-sensor.o)
 .data          0x0000000000244ea0        0x0 build/cooja/mtype580.a(clock.o)
 .data          0x0000000000244ea0        0x0 build/cooja/mtype580.a(cooja-log.o)
 .data          0x0000000000244ea0        0x0 build/cooja/mtype580.a(cfs-cooja.o)
 .data          0x0000000000244ea0       0x1c build/cooja/mtype580.a(cooja-radio.o)
                0x0000000000244ea0                simRadioHWOn
                0x0000000000244ea4                simSignalStrength
                0x0000000000244ea8                simLastSignalStrength
                0x0000000000244eac                simPower
                0x0000000000244eb0                simRadioChannel
                0x0000000000244eb4                simLQI
 *fill*         0x0000000000244ebc        0x4 
 .data.rel.local
                0x0000000000244ec0       0x20 build/cooja/mtype580.a(cooja-radio.o)
                0x0000000000244ec0                cooja_radio_process
 .data          0x0000000000244ee0        0x0 build/cooja/mtype580.a(eeprom.o)
 .data          0x0000000000244ee0        0x0 build/cooja/mtype580.a(random.o)
 .data          0x0000000000244ee0        0x0 build/cooja/mtype580.a(sensors.o)
 .data.rel.local
                0x0000000000244ee0       0x20 build/cooja/mtype580.a(sensors.o)
                0x0000000000244ee0                sensors_process
 .data          0x0000000000244f00        0x0 build/cooja/mtype580.a(leds.o)
 .data          0x0000000000244f00        0x0 build/cooja/mtype580.a(gpio-hal-arch.o)
 .data          0x0000000000244f00        0x1 build/cooja/mtype580.a(buttons.o)
                0x0000000000244f00                simButtonIsActive
 *fill*         0x0000000000244f01       0x1f 
 .data.rel.local
                0x0000000000244f20       0xb0 build/cooja/mtype580.a(buttons.o)
                0x0000000000244fc0                button_hal_buttons
 .data          0x0000000000244fd0        0x0 build/cooja/mtype580.a(deployment.o)
 .data          0x0000000000244fd0        0x0 build/cooja/mtype580.a(contiki-main.o)
 .data          0x0000000000244fd0        0x0 build/cooja/mtype580.a(autostart.o)
 .data          0x0000000000244fd0       0x10 build/cooja/mtype580.a(log.o)
                0x0000000000244fd0                curr_log_level_rpl
                0x0000000000244fd4                curr_log_level_ipv6
                0x0000000000244fd8                curr_log_level_mac
                0x0000000000244fdc                curr_log_level_main
 .data.rel      0x0000000000244fe0      0x138 build/cooja/mtype580.a(log.o)
                0x0000000000244fe0                all_modules
 .data          0x0000000000245118        0x0 build/cooja/mtype580.a(energest.o)
 .data          0x0000000000245118        0x0 build/cooja/mtype580.a(etimer.o)
 *fill*         0x0000000000245118        0x8 
 .data.rel.local
                0x0000000000245120       0x20 build/cooja/mtype580.a(etimer.o)
                0x0000000000245120                etimer_process
 .data          0x0000000000245140        0x0 build/cooja/mtype580.a(node-id.o)
 .data          0x0000000000245140        0x0 build/cooja/mtype580.a(ctimer.o)
 .data.rel.local
                0x0000000000245140       0x40 build/cooja/mtype580.a(ctimer.o)
                0x0000000000245160                ctimer_process
 .data          0x0000000000245180        0x0 build/cooja/mtype580.a(process.o)
 .data          0x0000000000245180        0x0 build/cooja/mtype580.a(rtimer.o)
 .data          0x0000000000245180        0x0 build/cooja/mtype580.a(timer.o)
 .data          0x0000000000245180        0x0 build/cooja/mtype580.a(list.o)
 .data          0x0000000000245180        0x0 build/cooja/mtype580.a(button-hal.o)
 .data.rel.local
                0x0000000000245180       0x20 build/cooja/mtype580.a(button-hal.o)
                0x0000000000245180                button_hal_process
 .data          0x00000000002451a0        0x0 build/cooja/mtype580.a(serial-line.o)
 .data.rel.local
                0x00000000002451a0       0x20 build/cooja/mtype580.a(serial-line.o)
                0x00000000002451a0                serial_line_process
 .data          0x00000000002451c0        0x0 build/cooja/mtype580.a(gpio-hal.o)
 .data.rel.local
                0x00000000002451c0        0x8 build/cooja/mtype580.a(gpio-hal.o)
 .data          0x00000000002451c8        0x0 build/cooja/mtype580.a(queuebuf.o)
 *fill*         0x00000000002451c8        0x8 
 .data.rel.local
                0x00000000002451d0       0x38 build/cooja/mtype580.a(queuebuf.o)
 .data          0x0000000000245208        0x0 build/cooja/mtype580.a(packetbuf.o)
 .data.rel.local
                0x0000000000245208        0x8 build/cooja/mtype580.a(packetbuf.o)
 .data          0x0000000000245210        0x0 build/cooja/mtype580.a(netstack.o)
 .data.rel.local
                0x0000000000245210        0x8 build/cooja/mtype580.a(netstack.o)
 .data          0x0000000000245218        0x0 build/cooja/mtype580.a(linkaddr.o)
 .data          0x0000000000245218        0x0 build/cooja/mtype580.a(tsch.o)
 *fill*         0x0000000000245218        0x8 
 .data.rel.local
                0x0000000000245220       0x60 build/cooja/mtype580.a(tsch.o)
                0x0000000000245220                tsch_process
                0x0000000000245240                tsch_send_eb_process
                0x0000000000245260                tsch_pending_events_process
 .data          0x0000000000245280        0x0 build/cooja/mtype580.a(uip-sr.o)
 .data.rel.local
                0x0000000000245280       0x28 build/cooja/mtype580.a(uip-sr.o)
 .data          0x00000000002452a8        0x0 build/cooja/mtype580.a(uip-ds6.o)
 .data          0x00000000002452a8        0x0 build/cooja/mtype580.a(tcpip.o)
 *fill*         0x00000000002452a8       0x18 
 .data.rel.local
                0x00000000002452c0       0x20 build/cooja/mtype580.a(tcpip.o)
                0x00000000002452c0                tcpip_process
 .data          0x00000000002452e0        0x0 build/cooja/mtype580.a(uip-ds6-route.o)
 .data.rel.local
                0x00000000002452e0       0x28 build/cooja/mtype580.a(uip-ds6-route.o)
 .data          0x0000000000245308        0x0 build/cooja/mtype580.a(uip-ds6-nbr.o)
 *fill*         0x0000000000245308        0x8 
 .data.rel.local
                0x0000000000245310       0x20 build/cooja/mtype580.a(uip-ds6-nbr.o)
 .data          0x0000000000245330        0x0 build/cooja/mtype580.a(uip6.o)
 .data          0x0000000000245330        0x0 build/cooja/mtype580.a(uip-nd6.o)
 .data.rel.local
                0x0000000000245330       0x18 build/cooja/mtype580.a(uip-nd6.o)
 .data          0x0000000000245348        0x0 build/cooja/mtype580.a(simple-udp.o)
 *fill*         0x0000000000245348       0x18 
 .data.rel.local
                0x0000000000245360       0x20 build/cooja/mtype580.a(simple-udp.o)
                0x0000000000245360                simple_udp_process
 .data          0x0000000000245380        0x0 build/cooja/mtype580.a(sicslowpan.o)
 .data          0x0000000000245380        0x0 build/cooja/mtype580.a(uiplib.o)
 .data          0x0000000000245380        0x0 build/cooja/mtype580.a(rpl.o)
 .data          0x0000000000245380        0x0 build/cooja/mtype580.a(rpl-dag-root.o)
 .data          0x0000000000245380        0x0 build/cooja/mtype580.a(watchdog.o)
 .data          0x0000000000245380        0x0 build/cooja/mtype580.a(int-master.o)
 .data          0x0000000000245380        0x0 build/cooja/mtype580.a(cooja16.o)
 .data          0x0000000000245380        0x0 build/cooja/mtype580.a(simple-energest)
 .data.rel.local
                0x0000000000245380       0x20 build/cooja/mtype580.a(simple-energest)
                0x0000000000245380                simple_energest_process
 .data          0x00000000002453a0        0x0 build/cooja/mtype580.a(orchestra.o)
 .data.rel.local
                0x00000000002453a0       0x18 build/cooja/mtype580.a(orchestra.o)
 *fill*         0x00000000002453b8        0x8 
 .data.rel      0x00000000002453c0       0x18 build/cooja/mtype580.a(orchestra.o)
                0x00000000002453c0                all_rules
 .data          0x00000000002453d8        0x0 build/cooja/mtype580.a(orchestra-rule-)
 *fill*         0x00000000002453d8        0x8 
 .data.rel.local
                0x00000000002453e0       0x38 build/cooja/mtype580.a(orchestra-rule-)
                0x00000000002453e0                eb_per_time_source
 .data          0x0000000000245418        0x0 build/cooja/mtype580.a(stimer.o)
 .data          0x0000000000245418        0x0 build/cooja/mtype580.a(ringbufindex.o)
 .data          0x0000000000245418        0x0 build/cooja/mtype580.a(memb.o)
 .data          0x0000000000245418        0x0 build/cooja/mtype580.a(ringbuf.o)
 .data          0x0000000000245418        0x0 build/cooja/mtype580.a(nbr-table.o)
 *fill*         0x0000000000245418        0x8 
 .data.rel.local
                0x0000000000245420       0x20 build/cooja/mtype580.a(nbr-table.o)
 .data          0x0000000000245440        0x0 build/cooja/mtype580.a(link-stats.o)
 .data.rel.local
                0x0000000000245440       0x20 build/cooja/mtype580.a(link-stats.o)
 .data          0x0000000000245460        0x0 build/cooja/mtype580.a(mac-sequence.o)
 .data          0x0000000000245460        0x0 build/cooja/mtype580.a(mac.o)
 .data          0x0000000000245460        0x0 build/cooja/mtype580.a(framer-802154.o)
 .data          0x0000000000245460        0x2 build/cooja/mtype580.a(frame802154.o)
 .data          0x0000000000245462        0x0 build/cooja/mtype580.a(tsch-queue.o)
 *fill*         0x0000000000245462        0xe 
 .data.rel.local
                0x0000000000245470       0x40 build/cooja/mtype580.a(tsch-queue.o)
 .data          0x00000000002454b0        0x0 build/cooja/mtype580.a(tsch-timeslot-t)
 .data          0x00000000002454b0        0x0 build/cooja/mtype580.a(tsch-schedule.o)
 .data.rel.local
                0x00000000002454b0       0x40 build/cooja/mtype580.a(tsch-schedule.o)
 .data          0x00000000002454f0        0x4 build/cooja/mtype580.a(tsch-slot-opera)
 .data          0x00000000002454f4        0x0 build/cooja/mtype580.a(tsch-packet.o)
 *fill*         0x00000000002454f4        0xc 
 .data          0x0000000000245500       0x20 build/cooja/mtype580.a(tsch-security.o)
 .data          0x0000000000245520        0x0 build/cooja/mtype580.a(tsch-rpl.o)
 .data          0x0000000000245520        0x0 build/cooja/mtype580.a(tsch-adaptive-t)
 .data          0x0000000000245520        0x0 build/cooja/mtype580.a(uipbuf.o)
 .data          0x0000000000245520        0x0 build/cooja/mtype580.a(uip-icmp6.o)
 .data.rel.local
                0x0000000000245520       0x48 build/cooja/mtype580.a(uip-icmp6.o)
 .data          0x0000000000245568        0x0 build/cooja/mtype580.a(uip-packetqueue)
 *fill*         0x0000000000245568        0x8 
 .data.rel.local
                0x0000000000245570       0x18 build/cooja/mtype580.a(uip-packetqueue)
 .data          0x0000000000245588        0x0 build/cooja/mtype580.a(uip-udp-packet.)
 .data          0x0000000000245588        0x0 build/cooja/mtype580.a(rpl-icmp6.o)
 *fill*         0x0000000000245588        0x8 
 .data.rel.local
                0x0000000000245590       0x78 build/cooja/mtype580.a(rpl-icmp6.o)
 .data          0x0000000000245608        0x0 build/cooja/mtype580.a(rpl-neighbor.o)
 *fill*         0x0000000000245608        0x8 
 .data.rel.local
                0x0000000000245610       0x20 build/cooja/mtype580.a(rpl-neighbor.o)
                0x0000000000245628                rpl_neighbors
 .data          0x0000000000245630        0x0 build/cooja/mtype580.a(rpl-dag.o)
 .data          0x0000000000245630        0x0 build/cooja/mtype580.a(rpl-timers.o)
 .data          0x0000000000245630        0x0 build/cooja/mtype580.a(rpl-ext-header.)
 .data          0x0000000000245630        0x0 build/cooja/mtype580.a(rpl-nbr-policy.)
 .data          0x0000000000245630        0x0 build/cooja/mtype580.a(rpl-mrhof.o)
 *fill*         0x0000000000245630       0x10 
 .data.rel.local
                0x0000000000245640       0x48 build/cooja/mtype580.a(rpl-mrhof.o)
                0x0000000000245640                rpl_mrhof
 .data          0x0000000000245688        0x0 build/cooja/mtype580.a(orchestra-rule-)
 *fill*         0x0000000000245688       0x18 
 .data.rel.local
                0x00000000002456a0       0x38 build/cooja/mtype580.a(orchestra-rule-)
                0x00000000002456a0                unicast_per_neighbor_rpl_ns
 .data          0x00000000002456d8        0x0 build/cooja/mtype580.a(orchestra-rule-)
 *fill*         0x00000000002456d8        0x8 
 .data.rel.local
                0x00000000002456e0       0x38 build/cooja/mtype580.a(orchestra-rule-)
                0x00000000002456e0                default_common
 .data          0x0000000000245718        0x0 build/cooja/mtype580.a(ccm-star.o)
 .data          0x0000000000245718        0x0 build/cooja/mtype580.a(aes-128.o)
 .data          0x0000000000245718        0x0 build/cooja/mtype580.a(frame802154e-ie)
 .data          0x0000000000245718        0x0 /usr/lib/gcc/x86_64-linux-gnu/7/crtendS.o
 .data          0x0000000000245718        0x0 /usr/lib/gcc/x86_64-linux-gnu/7/../../../x86_64-linux-gnu/crtn.o

.tm_clone_table
                0x0000000000245718        0x0
 .tm_clone_table
                0x0000000000245718        0x0 /usr/lib/gcc/x86_64-linux-gnu/7/crtbeginS.o
 .tm_clone_table
                0x0000000000245718        0x0 /usr/lib/gcc/x86_64-linux-gnu/7/crtendS.o

.data1
 *(.data1)
                0x0000000000245718                _edata = .
                [!provide]                        PROVIDE (edata = .)
                0x0000000000245718                . = .
                0x0000000000245718                __bss_start = .

.bss            0x0000000000245720    0x13fe0
 *(.dynbss)
 .dynbss        0x0000000000245720        0x0 /usr/lib/gcc/x86_64-linux-gnu/7/../../../x86_64-linux-gnu/crti.o
 *(.bss .bss.* .gnu.linkonce.b.*)
 .bss           0x0000000000245720        0x0 /usr/lib/gcc/x86_64-linux-gnu/7/../../../x86_64-linux-gnu/crti.o
 .bss           0x0000000000245720        0x1 /usr/lib/gcc/x86_64-linux-gnu/7/crtbeginS.o
 *fill*         0x0000000000245721       0x1f 
 .bss           0x0000000000245740       0x74 node.o
 *fill*         0x00000000002457b4        0xc 
 .bss           0x00000000002457c0     0x4040 build/cooja/mtype580.o
 .bss           0x0000000000249800        0x1 build/cooja/mtype580.a(simEnvChange.o)
                0x0000000000249800                simDontFallAsleep
 *fill*         0x0000000000249801        0x7 
 .bss           0x0000000000249808        0x8 build/cooja/mtype580.a(cooja_mt.o)
 .bss           0x0000000000249810        0x8 build/cooja/mtype580.a(cooja_mtarch.o)
 .bss           0x0000000000249818        0x0 build/cooja/mtype580.a(rtimer-arch.o)
 .bss           0x0000000000249818        0x0 build/cooja/mtype580.a(beep.o)
 .bss           0x0000000000249818        0x1 build/cooja/mtype580.a(leds-arch.o)
                0x0000000000249818                simLedsValue
 .bss           0x0000000000249819        0x0 build/cooja/mtype580.a(moteid.o)
 .bss           0x0000000000249819        0x1 build/cooja/mtype580.a(pir-sensor.o)
                0x0000000000249819                simPirValue
 *fill*         0x000000000024981a        0x6 
 .bss           0x0000000000249820        0x8 build/cooja/mtype580.a(rs232.o)
 .bss           0x0000000000249828        0x1 build/cooja/mtype580.a(vib-sensor.o)
                0x0000000000249828                simVibValue
 .bss           0x0000000000249829        0x0 build/cooja/mtype580.a(clock.o)
 *fill*         0x0000000000249829       0x17 
 .bss           0x0000000000249840     0x2020 build/cooja/mtype580.a(cooja-log.o)
 .bss           0x000000000024b860      0xfc0 build/cooja/mtype580.a(cfs-cooja.o)
                0x000000000024b860                simCFSData
                0x000000000024c800                simCFSSize
                0x000000000024c804                simCFSChanged
                0x000000000024c808                simCFSRead
                0x000000000024c80c                simCFSWritten
 .bss           0x000000000024c820       0x2c build/cooja/mtype580.a(cooja-radio.o)
                0x000000000024c820                simReceiving
                0x000000000024c824                simInSize
                0x000000000024c828                simLastPacketTimestamp
                0x000000000024c830                simOutSize
 .bss           0x000000000024c84c        0xc build/cooja/mtype580.a(eeprom.o)
                0x000000000024c84c                simEEPROMChanged
                0x000000000024c850                simEEPROMRead
                0x000000000024c854                simEEPROMWritten
 .bss           0x000000000024c858        0x0 build/cooja/mtype580.a(random.o)
 .bss           0x000000000024c858        0xc build/cooja/mtype580.a(sensors.o)
 .bss           0x000000000024c864        0x0 build/cooja/mtype580.a(leds.o)
 *fill*         0x000000000024c864       0x1c 
 .bss           0x000000000024c880       0x40 build/cooja/mtype580.a(gpio-hal-arch.o)
 .bss           0x000000000024c8c0        0x0 build/cooja/mtype580.a(buttons.o)
 .bss           0x000000000024c8c0        0x4 build/cooja/mtype580.a(deployment.o)
 .bss           0x000000000024c8c4        0x0 build/cooja/mtype580.a(contiki-main.o)
 .bss           0x000000000024c8c4        0x0 build/cooja/mtype580.a(autostart.o)
 .bss           0x000000000024c8c4       0x20 build/cooja/mtype580.a(log.o)
                0x000000000024c8c4                curr_log_level_tcpip
                0x000000000024c8c8                curr_log_level_6lowpan
                0x000000000024c8cc                curr_log_level_nullnet
                0x000000000024c8d0                curr_log_level_framer
                0x000000000024c8d4                curr_log_level_6top
                0x000000000024c8d8                curr_log_level_coap
                0x000000000024c8dc                curr_log_level_snmp
                0x000000000024c8e0                curr_log_level_lwm2m
 .bss           0x000000000024c8e4        0x0 build/cooja/mtype580.a(energest.o)
 *fill*         0x000000000024c8e4        0x4 
 .bss           0x000000000024c8e8       0x10 build/cooja/mtype580.a(etimer.o)
 .bss           0x000000000024c8f8        0x2 build/cooja/mtype580.a(node-id.o)
                0x000000000024c8f8                node_id
 *fill*         0x000000000024c8fa        0x6 
 .bss           0x000000000024c900        0x9 build/cooja/mtype580.a(ctimer.o)
 *fill*         0x000000000024c909       0x17 
 .bss           0x000000000024c920      0x321 build/cooja/mtype580.a(process.o)
                0x000000000024c920                process_list
                0x000000000024c928                process_current
 *fill*         0x000000000024cc41        0x7 
 .bss           0x000000000024cc48        0x8 build/cooja/mtype580.a(rtimer.o)
 .bss           0x000000000024cc50        0x0 build/cooja/mtype580.a(timer.o)
 .bss           0x000000000024cc50        0x0 build/cooja/mtype580.a(list.o)
 .bss           0x000000000024cc50       0x28 build/cooja/mtype580.a(button-hal.o)
 *fill*         0x000000000024cc78        0x8 
 .bss           0x000000000024cc80      0x140 build/cooja/mtype580.a(serial-line.o)
 .bss           0x000000000024cdc0        0x8 build/cooja/mtype580.a(gpio-hal.o)
 *fill*         0x000000000024cdc8       0x18 
 .bss           0x000000000024cde0     0x2f00 build/cooja/mtype580.a(queuebuf.o)
 .bss           0x000000000024fce0       0xa0 build/cooja/mtype580.a(packetbuf.o)
 .bss           0x000000000024fd80        0x8 build/cooja/mtype580.a(netstack.o)
 .bss           0x000000000024fd88        0x0 build/cooja/mtype580.a(linkaddr.o)
 *fill*         0x000000000024fd88       0x18 
 .bss           0x000000000024fda0      0x1a0 build/cooja/mtype580.a(tsch.o)
                0x000000000024fda0                tsch_is_started
                0x000000000024fda4                tsch_is_initialized
                0x000000000024fda8                tsch_is_coordinator
                0x000000000024fdac                tsch_is_associated
                0x000000000024fdb0                tsch_association_count
                0x000000000024fdb4                tsch_is_pan_secured
 .bss           0x000000000024ff40      0x428 build/cooja/mtype580.a(uip-sr.o)
 *fill*         0x0000000000250368        0x8 
 .bss           0x0000000000250370       0x40 build/cooja/mtype580.a(uip-ds6.o)
 *fill*         0x00000000002503b0       0x10 
 .bss           0x00000000002503c0       0x20 build/cooja/mtype580.a(tcpip.o)
 .bss           0x00000000002503e0       0x80 build/cooja/mtype580.a(uip-ds6-route.o)
 .bss           0x0000000000250460      0x200 build/cooja/mtype580.a(uip-ds6-nbr.o)
 .bss           0x0000000000250660        0x8 build/cooja/mtype580.a(uip6.o)
                0x0000000000250660                uip_ext_bitmap
                0x0000000000250662                uip_ext_len
                0x0000000000250664                uip_last_proto
 .bss           0x0000000000250668       0x20 build/cooja/mtype580.a(uip-nd6.o)
 *fill*         0x0000000000250688       0x18 
 .bss           0x00000000002506a0      0x520 build/cooja/mtype580.a(simple-udp.o)
 .bss           0x0000000000250bc0      0x738 build/cooja/mtype580.a(sicslowpan.o)
 .bss           0x00000000002512f8        0x0 build/cooja/mtype580.a(uiplib.o)
 .bss           0x00000000002512f8        0x1 build/cooja/mtype580.a(rpl.o)
 *fill*         0x00000000002512f9        0x7 
 .bss           0x0000000000251300       0x11 build/cooja/mtype580.a(rpl-dag-root.o)
 .bss           0x0000000000251311        0x0 build/cooja/mtype580.a(watchdog.o)
 *fill*         0x0000000000251311        0x3 
 .bss           0x0000000000251314        0x4 build/cooja/mtype580.a(int-master.o)
 .bss           0x0000000000251318        0x0 build/cooja/mtype580.a(cooja16.o)
 *fill*         0x0000000000251318        0x8 
 .bss           0x0000000000251320       0xc0 build/cooja/mtype580.a(simple-energest)
 .bss           0x00000000002513e0        0x4 build/cooja/mtype580.a(orchestra.o)
                0x00000000002513e0                orchestra_parent_knows_us
 *fill*         0x00000000002513e4        0x4 
 .bss           0x00000000002513e8       0x10 build/cooja/mtype580.a(orchestra-rule-)
 .bss           0x00000000002513f8        0x0 build/cooja/mtype580.a(stimer.o)
 .bss           0x00000000002513f8        0x0 build/cooja/mtype580.a(ringbufindex.o)
 .bss           0x00000000002513f8        0x0 build/cooja/mtype580.a(memb.o)
 .bss           0x00000000002513f8        0x0 build/cooja/mtype580.a(ringbuf.o)
 *fill*         0x00000000002513f8        0x8 
 .bss           0x0000000000251400      0x188 build/cooja/mtype580.a(nbr-table.o)
 *fill*         0x0000000000251588       0x18 
 .bss           0x00000000002515a0      0x100 build/cooja/mtype580.a(link-stats.o)
 .bss           0x00000000002516a0      0x180 build/cooja/mtype580.a(mac-sequence.o)
 .bss           0x0000000000251820        0x0 build/cooja/mtype580.a(mac.o)
 .bss           0x0000000000251820        0x2 build/cooja/mtype580.a(framer-802154.o)
 .bss           0x0000000000251822        0x0 build/cooja/mtype580.a(frame802154.o)
 *fill*         0x0000000000251822       0x1e 
 .bss           0x0000000000251840     0x2940 build/cooja/mtype580.a(tsch-queue.o)
 .bss           0x0000000000254180        0x0 build/cooja/mtype580.a(tsch-timeslot-t)
 .bss           0x0000000000254180      0x5e8 build/cooja/mtype580.a(tsch-schedule.o)
 *fill*         0x0000000000254768       0x18 
 .bss           0x0000000000254780      0x1e8 build/cooja/mtype580.a(tsch-slot-opera)
                0x0000000000254780                current_link
                0x0000000000254788                tsch_current_burst_count
 *fill*         0x0000000000254968       0x18 
 .bss           0x0000000000254980       0x20 build/cooja/mtype580.a(tsch-packet.o)
 .bss           0x00000000002549a0        0x0 build/cooja/mtype580.a(tsch-security.o)
 .bss           0x00000000002549a0        0x0 build/cooja/mtype580.a(tsch-rpl.o)
 .bss           0x00000000002549a0       0x4c build/cooja/mtype580.a(tsch-adaptive-t)
 *fill*         0x00000000002549ec        0x4 
 .bss           0x00000000002549f0       0x1c build/cooja/mtype580.a(uipbuf.o)
 *fill*         0x0000000000254a0c        0x4 
 .bss           0x0000000000254a10       0x20 build/cooja/mtype580.a(uip-icmp6.o)
 *fill*         0x0000000000254a30       0x10 
 .bss           0x0000000000254a40      0xad0 build/cooja/mtype580.a(uip-packetqueue)
 .bss           0x0000000000255510        0x0 build/cooja/mtype580.a(uip-udp-packet.)
 .bss           0x0000000000255510        0x0 build/cooja/mtype580.a(rpl-icmp6.o)
 *fill*         0x0000000000255510       0x10 
 .bss           0x0000000000255520      0x100 build/cooja/mtype580.a(rpl-neighbor.o)
 .bss           0x0000000000255620        0x0 build/cooja/mtype580.a(rpl-dag.o)
 .bss           0x0000000000255620       0x80 build/cooja/mtype580.a(rpl-timers.o)
 .bss           0x00000000002556a0        0x0 build/cooja/mtype580.a(rpl-ext-header.)
 .bss           0x00000000002556a0       0x12 build/cooja/mtype580.a(rpl-nbr-policy.)
 .bss           0x00000000002556b2        0x0 build/cooja/mtype580.a(rpl-mrhof.o)
 *fill*         0x00000000002556b2        0x6 
 .bss           0x00000000002556b8       0x10 build/cooja/mtype580.a(orchestra-rule-)
 .bss           0x00000000002556c8        0x2 build/cooja/mtype580.a(orchestra-rule-)
 .bss           0x00000000002556ca        0x0 build/cooja/mtype580.a(ccm-star.o)
 *fill*         0x00000000002556ca       0x16 
 .bss           0x00000000002556e0       0xb0 build/cooja/mtype580.a(aes-128.o)
 .bss           0x0000000000255790        0x0 build/cooja/mtype580.a(frame802154e-ie)
 .bss           0x0000000000255790        0x0 /usr/lib/gcc/x86_64-linux-gnu/7/crtendS.o
 .bss           0x0000000000255790        0x0 /usr/lib/gcc/x86_64-linux-gnu/7/../../../x86_64-linux-gnu/crtn.o
 *(COMMON)
 COMMON         0x0000000000255790        0xc build/cooja/mtype580.o
                0x0000000000255790                referenceVar
                0x0000000000255798                sensors_flags
 *fill*         0x000000000025579c        0x4 
 COMMON         0x00000000002557a0       0x10 build/cooja/mtype580.a(simEnvChange.o)
                0x00000000002557a0                simEtimerPending
                0x00000000002557a4                simProcessRunValue
                0x00000000002557a8                simEtimerNextExpirationTime
 COMMON         0x00000000002557b0       0x18 build/cooja/mtype580.a(rtimer-arch.o)
                0x00000000002557b0                simRtimerPending
                0x00000000002557b8                simRtimerCurrentTicks
                0x00000000002557c0                simRtimerNextExpirationTime
 COMMON         0x00000000002557c8        0x1 build/cooja/mtype580.a(beep.o)
                0x00000000002557c8                simBeeped
 *fill*         0x00000000002557c9        0x3 
 COMMON         0x00000000002557cc        0xc build/cooja/mtype580.a(moteid.o)
                0x00000000002557cc                simRandomSeed
                0x00000000002557d0                simMoteIDChanged
                0x00000000002557d4                simMoteID
 COMMON         0x00000000002557d8        0x2 build/cooja/mtype580.a(pir-sensor.o)
                0x00000000002557d8                simPirIsActive
                0x00000000002557d9                simPirChanged
 *fill*         0x00000000002557da        0x6 
 COMMON         0x00000000002557e0      0x820 build/cooja/mtype580.a(rs232.o)
                0x00000000002557e0                simSerialReceivingFlag
                0x00000000002557e4                simSerialReceivingLength
                0x0000000000255800                simSerialReceivingData
 COMMON         0x0000000000256000        0x2 build/cooja/mtype580.a(vib-sensor.o)
                0x0000000000256000                simVibChanged
                0x0000000000256001                simVibIsActive
 *fill*         0x0000000000256002        0x6 
 COMMON         0x0000000000256008        0x8 build/cooja/mtype580.a(clock.o)
                0x0000000000256008                simCurrentTime
 *fill*         0x0000000000256010       0x10 
 COMMON         0x0000000000256020     0x2020 build/cooja/mtype580.a(cooja-log.o)
                0x0000000000256020                simLoggedLength
                0x0000000000256024                simLoggedFlag
                0x0000000000256040                simLoggedData
 COMMON         0x0000000000258040       0xfd build/cooja/mtype580.a(cooja-radio.o)
                0x0000000000258040                simOutDataBuffer
                0x00000000002580c0                simInDataBuffer
 *fill*         0x000000000025813d        0x3 
 COMMON         0x0000000000258140      0x400 build/cooja/mtype580.a(eeprom.o)
                0x0000000000258140                simEEPROMData
 COMMON         0x0000000000258540        0x1 build/cooja/mtype580.a(sensors.o)
                0x0000000000258540                sensors_event
 COMMON         0x0000000000258541        0x2 build/cooja/mtype580.a(buttons.o)
                0x0000000000258541                simButtonIsDown
                0x0000000000258542                simButtonChanged
 *fill*         0x0000000000258543       0x1d 
 COMMON         0x0000000000258560       0x68 build/cooja/mtype580.a(energest.o)
                0x0000000000258560                energest_current_time
                0x0000000000258588                energest_current_mode
                0x00000000002585a0                energest_total_time
 COMMON         0x00000000002585c8        0x3 build/cooja/mtype580.a(button-hal.o)
                0x00000000002585c8                button_hal_periodic_event
                0x00000000002585c9                button_hal_press_event
                0x00000000002585ca                button_hal_release_event
 COMMON         0x00000000002585cb        0x1 build/cooja/mtype580.a(serial-line.o)
                0x00000000002585cb                serial_line_event_message
 *fill*         0x00000000002585cc       0x14 
 COMMON         0x00000000002585e0       0x30 build/cooja/mtype580.a(packetbuf.o)
                0x00000000002585e0                packetbuf_attrs
                0x0000000000258600                packetbuf_addrs
 COMMON         0x0000000000258610        0x8 build/cooja/mtype580.a(linkaddr.o)
                0x0000000000258610                linkaddr_node_addr
 *fill*         0x0000000000258618        0x8 
 COMMON         0x0000000000258620       0xc0 build/cooja/mtype580.a(tsch.o)
                0x0000000000258620                tsch_hopping_sequence
                0x0000000000258630                tsch_timing_us
                0x0000000000258648                tsch_current_asn
                0x0000000000258650                rx_count
                0x0000000000258658                min_drift_seen
                0x0000000000258660                tsch_timing
                0x00000000002586c0                sync_count
                0x00000000002586c8                tsch_join_priority
                0x00000000002586d0                tx_count
                0x00000000002586d8                max_drift_seen
                0x00000000002586dc                tsch_hopping_sequence_length
 COMMON         0x00000000002586e0      0x1f1 build/cooja/mtype580.a(uip-ds6.o)
                0x00000000002586e0                uip_ds6_prefix_list
                0x0000000000258740                uip_ds6_timer_periodic
                0x0000000000258760                uip_ds6_netif_addr_list_offset
                0x0000000000258780                uip_ds6_if
                0x00000000002588c0                uip_ds6_timer_ra
                0x00000000002588d0                uip_ds6_addr_size
 COMMON         0x00000000002588d1        0x1 build/cooja/mtype580.a(tcpip.o)
                0x00000000002588d1                tcpip_event
 *fill*         0x00000000002588d2        0xe 
 COMMON         0x00000000002588e0      0x690 build/cooja/mtype580.a(uip6.o)
                0x00000000002588e0                uip_slen
                0x00000000002588e8                uip_lladdr
                0x00000000002588f0                uip_appdata
                0x00000000002588f8                uip_flags
                0x0000000000258900                uip_aligned_buf
                0x0000000000258e00                SFA_on
                0x0000000000258e02                uip_len
                0x0000000000258e08                uip_sappdata
                0x0000000000258e20                uip_udp_conns
                0x0000000000258f60                uip_udp_conn
                0x0000000000258f68                uip_conn
 COMMON         0x0000000000258f70       0x10 build/cooja/mtype580.a(rpl.o)
                0x0000000000258f70                rpl_multicast_addr
 COMMON         0x0000000000258f80        0x8 build/cooja/mtype580.a(orchestra.o)
                0x0000000000258f80                orchestra_parent_linkaddr
 *fill*         0x0000000000258f88       0x18 
 COMMON         0x0000000000258fa0       0x40 build/cooja/mtype580.a(link-stats.o)
                0x0000000000258fa0                periodic_timer
 COMMON         0x0000000000258fe0       0x10 build/cooja/mtype580.a(tsch-queue.o)
                0x0000000000258fe0                n_eb
                0x0000000000258fe8                n_broadcast
 *fill*         0x0000000000258ff0       0x10 
 COMMON         0x0000000000259000      0x480 build/cooja/mtype580.a(tsch-slot-opera)
                0x0000000000259000                tsch_current_channel
                0x0000000000259001                input_ringbuf
                0x0000000000259004                tsch_current_channel_offset
                0x0000000000259008                tsch_last_sync_time
                0x0000000000259020                dequeued_array
                0x0000000000259220                dequeued_ringbuf
                0x0000000000259240                input_array
 COMMON         0x0000000000259480        0x8 build/cooja/mtype580.a(tsch-adaptive-t)
                0x0000000000259480                last_timesource_neighbor
 *fill*         0x0000000000259488       0x18 
 COMMON         0x00000000002594a0      0x260 build/cooja/mtype580.a(rpl-dag.o)
                0x00000000002594a0                curr_instance
                0x0000000000259700                . = ALIGN ((. != 0x0)?0x8:0x1)

.lbss
 *(.dynlbss)
 *(.lbss .lbss.* .gnu.linkonce.lb.*)
 *(LARGE_COMMON)
                0x0000000000259700                . = ALIGN (0x8)
                0x0000000000259700                . = SEGMENT_START ("ldata-segment", .)

.lrodata
 *(.lrodata .lrodata.* .gnu.linkonce.lr.*)

.ldata          0x0000000000659700        0x0
 *(.ldata .ldata.* .gnu.linkonce.l.*)
                0x0000000000659700                . = ALIGN ((. != 0x0)?0x8:0x1)
                0x0000000000659700                . = ALIGN (0x8)
                0x0000000000659700                _end = .
                [!provide]                        PROVIDE (end = .)
                0x0000000000659700                . = DATA_SEGMENT_END (.)

.stab
 *(.stab)

.stabstr
 *(.stabstr)

.stab.excl
 *(.stab.excl)

.stab.exclstr
 *(.stab.exclstr)

.stab.index
 *(.stab.index)

.stab.indexstr
 *(.stab.indexstr)

.comment        0x0000000000000000       0x29
 *(.comment)
 .comment       0x0000000000000000       0x29 /usr/lib/gcc/x86_64-linux-gnu/7/crtbeginS.o
                                         0x2a (size before relaxing)
 .comment       0x0000000000000029       0x2a node.o
 .comment       0x0000000000000029       0x2a build/cooja/mtype580.o
 .comment       0x0000000000000029       0x2a build/cooja/mtype580.a(simEnvChange.o)
 .comment       0x0000000000000029       0x2a build/cooja/mtype580.a(cooja_mt.o)
 .comment       0x0000000000000029       0x2a build/cooja/mtype580.a(cooja_mtarch.o)
 .comment       0x0000000000000029       0x2a build/cooja/mtype580.a(rtimer-arch.o)
 .comment       0x0000000000000029       0x2a build/cooja/mtype580.a(beep.o)
 .comment       0x0000000000000029       0x2a build/cooja/mtype580.a(leds-arch.o)
 .comment       0x0000000000000029       0x2a build/cooja/mtype580.a(moteid.o)
 .comment       0x0000000000000029       0x2a build/cooja/mtype580.a(pir-sensor.o)
 .comment       0x0000000000000029       0x2a build/cooja/mtype580.a(rs232.o)
 .comment       0x0000000000000029       0x2a build/cooja/mtype580.a(vib-sensor.o)
 .comment       0x0000000000000029       0x2a build/cooja/mtype580.a(clock.o)
 .comment       0x0000000000000029       0x2a build/cooja/mtype580.a(cooja-log.o)
 .comment       0x0000000000000029       0x2a build/cooja/mtype580.a(cfs-cooja.o)
 .comment       0x0000000000000029       0x2a build/cooja/mtype580.a(cooja-radio.o)
 .comment       0x0000000000000029       0x2a build/cooja/mtype580.a(eeprom.o)
 .comment       0x0000000000000029       0x2a build/cooja/mtype580.a(random.o)
 .comment       0x0000000000000029       0x2a build/cooja/mtype580.a(sensors.o)
 .comment       0x0000000000000029       0x2a build/cooja/mtype580.a(leds.o)
 .comment       0x0000000000000029       0x2a build/cooja/mtype580.a(gpio-hal-arch.o)
 .comment       0x0000000000000029       0x2a build/cooja/mtype580.a(buttons.o)
 .comment       0x0000000000000029       0x2a build/cooja/mtype580.a(deployment.o)
 .comment       0x0000000000000029       0x2a build/cooja/mtype580.a(contiki-main.o)
 .comment       0x0000000000000029       0x2a build/cooja/mtype580.a(autostart.o)
 .comment       0x0000000000000029       0x2a build/cooja/mtype580.a(log.o)
 .comment       0x0000000000000029       0x2a build/cooja/mtype580.a(energest.o)
 .comment       0x0000000000000029       0x2a build/cooja/mtype580.a(etimer.o)
 .comment       0x0000000000000029       0x2a build/cooja/mtype580.a(node-id.o)
 .comment       0x0000000000000029       0x2a build/cooja/mtype580.a(ctimer.o)
 .comment       0x0000000000000029       0x2a build/cooja/mtype580.a(process.o)
 .comment       0x0000000000000029       0x2a build/cooja/mtype580.a(rtimer.o)
 .comment       0x0000000000000029       0x2a build/cooja/mtype580.a(timer.o)
 .comment       0x0000000000000029       0x2a build/cooja/mtype580.a(list.o)
 .comment       0x0000000000000029       0x2a build/cooja/mtype580.a(button-hal.o)
 .comment       0x0000000000000029       0x2a build/cooja/mtype580.a(serial-line.o)
 .comment       0x0000000000000029       0x2a build/cooja/mtype580.a(gpio-hal.o)
 .comment       0x0000000000000029       0x2a build/cooja/mtype580.a(queuebuf.o)
 .comment       0x0000000000000029       0x2a build/cooja/mtype580.a(packetbuf.o)
 .comment       0x0000000000000029       0x2a build/cooja/mtype580.a(netstack.o)
 .comment       0x0000000000000029       0x2a build/cooja/mtype580.a(linkaddr.o)
 .comment       0x0000000000000029       0x2a build/cooja/mtype580.a(tsch.o)
 .comment       0x0000000000000029       0x2a build/cooja/mtype580.a(uip-sr.o)
 .comment       0x0000000000000029       0x2a build/cooja/mtype580.a(uip-ds6.o)
 .comment       0x0000000000000029       0x2a build/cooja/mtype580.a(tcpip.o)
 .comment       0x0000000000000029       0x2a build/cooja/mtype580.a(uip-ds6-route.o)
 .comment       0x0000000000000029       0x2a build/cooja/mtype580.a(uip-ds6-nbr.o)
 .comment       0x0000000000000029       0x2a build/cooja/mtype580.a(uip6.o)
 .comment       0x0000000000000029       0x2a build/cooja/mtype580.a(uip-nd6.o)
 .comment       0x0000000000000029       0x2a build/cooja/mtype580.a(simple-udp.o)
 .comment       0x0000000000000029       0x2a build/cooja/mtype580.a(sicslowpan.o)
 .comment       0x0000000000000029       0x2a build/cooja/mtype580.a(uiplib.o)
 .comment       0x0000000000000029       0x2a build/cooja/mtype580.a(rpl.o)
 .comment       0x0000000000000029       0x2a build/cooja/mtype580.a(rpl-dag-root.o)
 .comment       0x0000000000000029       0x2a build/cooja/mtype580.a(watchdog.o)
 .comment       0x0000000000000029       0x2a build/cooja/mtype580.a(int-master.o)
 .comment       0x0000000000000029       0x2a build/cooja/mtype580.a(cooja16.o)
 .comment       0x0000000000000029       0x2a build/cooja/mtype580.a(simple-energest)
 .comment       0x0000000000000029       0x2a build/cooja/mtype580.a(orchestra.o)
 .comment       0x0000000000000029       0x2a build/cooja/mtype580.a(orchestra-rule-)
 .comment       0x0000000000000029       0x2a build/cooja/mtype580.a(stimer.o)
 .comment       0x0000000000000029       0x2a build/cooja/mtype580.a(ringbufindex.o)
 .comment       0x0000000000000029       0x2a build/cooja/mtype580.a(memb.o)
 .comment       0x0000000000000029       0x2a build/cooja/mtype580.a(ringbuf.o)
 .comment       0x0000000000000029       0x2a build/cooja/mtype580.a(nbr-table.o)
 .comment       0x0000000000000029       0x2a build/cooja/mtype580.a(link-stats.o)
 .comment       0x0000000000000029       0x2a build/cooja/mtype580.a(mac-sequence.o)
 .comment       0x0000000000000029       0x2a build/cooja/mtype580.a(mac.o)
 .comment       0x0000000000000029       0x2a build/cooja/mtype580.a(framer-802154.o)
 .comment       0x0000000000000029       0x2a build/cooja/mtype580.a(frame802154.o)
 .comment       0x0000000000000029       0x2a build/cooja/mtype580.a(tsch-queue.o)
 .comment       0x0000000000000029       0x2a build/cooja/mtype580.a(tsch-timeslot-t)
 .comment       0x0000000000000029       0x2a build/cooja/mtype580.a(tsch-schedule.o)
 .comment       0x0000000000000029       0x2a build/cooja/mtype580.a(tsch-slot-opera)
 .comment       0x0000000000000029       0x2a build/cooja/mtype580.a(tsch-packet.o)
 .comment       0x0000000000000029       0x2a build/cooja/mtype580.a(tsch-security.o)
 .comment       0x0000000000000029       0x2a build/cooja/mtype580.a(tsch-rpl.o)
 .comment       0x0000000000000029       0x2a build/cooja/mtype580.a(tsch-adaptive-t)
 .comment       0x0000000000000029       0x2a build/cooja/mtype580.a(uipbuf.o)
 .comment       0x0000000000000029       0x2a build/cooja/mtype580.a(uip-icmp6.o)
 .comment       0x0000000000000029       0x2a build/cooja/mtype580.a(uip-packetqueue)
 .comment       0x0000000000000029       0x2a build/cooja/mtype580.a(uip-udp-packet.)
 .comment       0x0000000000000029       0x2a build/cooja/mtype580.a(rpl-icmp6.o)
 .comment       0x0000000000000029       0x2a build/cooja/mtype580.a(rpl-neighbor.o)
 .comment       0x0000000000000029       0x2a build/cooja/mtype580.a(rpl-dag.o)
 .comment       0x0000000000000029       0x2a build/cooja/mtype580.a(rpl-timers.o)
 .comment       0x0000000000000029       0x2a build/cooja/mtype580.a(rpl-ext-header.)
 .comment       0x0000000000000029       0x2a build/cooja/mtype580.a(rpl-nbr-policy.)
 .comment       0x0000000000000029       0x2a build/cooja/mtype580.a(rpl-mrhof.o)
 .comment       0x0000000000000029       0x2a build/cooja/mtype580.a(orchestra-rule-)
 .comment       0x0000000000000029       0x2a build/cooja/mtype580.a(orchestra-rule-)
 .comment       0x0000000000000029       0x2a build/cooja/mtype580.a(ccm-star.o)
 .comment       0x0000000000000029       0x2a build/cooja/mtype580.a(aes-128.o)
 .comment       0x0000000000000029       0x2a build/cooja/mtype580.a(frame802154e-ie)
 .comment       0x0000000000000029       0x2a /usr/lib/gcc/x86_64-linux-gnu/7/crtendS.o

.debug
 *(.debug)

.line
 *(.line)

.debug_srcinfo
 *(.debug_srcinfo)

.debug_sfnames
 *(.debug_sfnames)

.debug_aranges  0x0000000000000000     0x1180
 *(.debug_aranges)
 .debug_aranges
                0x0000000000000000       0x30 node.o
 .debug_aranges
                0x0000000000000030       0x30 build/cooja/mtype580.o
 .debug_aranges
                0x0000000000000060       0x30 build/cooja/mtype580.a(simEnvChange.o)
 .debug_aranges
                0x0000000000000090       0x30 build/cooja/mtype580.a(cooja_mt.o)
 .debug_aranges
                0x00000000000000c0       0x30 build/cooja/mtype580.a(cooja_mtarch.o)
 .debug_aranges
                0x00000000000000f0       0x30 build/cooja/mtype580.a(rtimer-arch.o)
 .debug_aranges
                0x0000000000000120       0x30 build/cooja/mtype580.a(beep.o)
 .debug_aranges
                0x0000000000000150       0x30 build/cooja/mtype580.a(leds-arch.o)
 .debug_aranges
                0x0000000000000180       0x30 build/cooja/mtype580.a(moteid.o)
 .debug_aranges
                0x00000000000001b0       0x30 build/cooja/mtype580.a(pir-sensor.o)
 .debug_aranges
                0x00000000000001e0       0x30 build/cooja/mtype580.a(rs232.o)
 .debug_aranges
                0x0000000000000210       0x30 build/cooja/mtype580.a(vib-sensor.o)
 .debug_aranges
                0x0000000000000240       0x30 build/cooja/mtype580.a(clock.o)
 .debug_aranges
                0x0000000000000270       0x30 build/cooja/mtype580.a(cooja-log.o)
 .debug_aranges
                0x00000000000002a0       0x30 build/cooja/mtype580.a(cfs-cooja.o)
 .debug_aranges
                0x00000000000002d0       0x30 build/cooja/mtype580.a(cooja-radio.o)
 .debug_aranges
                0x0000000000000300       0x30 build/cooja/mtype580.a(eeprom.o)
 .debug_aranges
                0x0000000000000330       0x30 build/cooja/mtype580.a(random.o)
 .debug_aranges
                0x0000000000000360       0x30 build/cooja/mtype580.a(sensors.o)
 .debug_aranges
                0x0000000000000390       0x30 build/cooja/mtype580.a(leds.o)
 .debug_aranges
                0x00000000000003c0       0x30 build/cooja/mtype580.a(gpio-hal-arch.o)
 .debug_aranges
                0x00000000000003f0       0x30 build/cooja/mtype580.a(buttons.o)
 .debug_aranges
                0x0000000000000420       0x30 build/cooja/mtype580.a(deployment.o)
 .debug_aranges
                0x0000000000000450       0x30 build/cooja/mtype580.a(contiki-main.o)
 .debug_aranges
                0x0000000000000480       0x30 build/cooja/mtype580.a(autostart.o)
 .debug_aranges
                0x00000000000004b0       0x30 build/cooja/mtype580.a(log.o)
 .debug_aranges
                0x00000000000004e0       0x30 build/cooja/mtype580.a(energest.o)
 .debug_aranges
                0x0000000000000510       0x30 build/cooja/mtype580.a(etimer.o)
 .debug_aranges
                0x0000000000000540       0x30 build/cooja/mtype580.a(node-id.o)
 .debug_aranges
                0x0000000000000570       0x30 build/cooja/mtype580.a(ctimer.o)
 .debug_aranges
                0x00000000000005a0       0x30 build/cooja/mtype580.a(process.o)
 .debug_aranges
                0x00000000000005d0       0x30 build/cooja/mtype580.a(rtimer.o)
 .debug_aranges
                0x0000000000000600       0x30 build/cooja/mtype580.a(timer.o)
 .debug_aranges
                0x0000000000000630       0x30 build/cooja/mtype580.a(list.o)
 .debug_aranges
                0x0000000000000660       0x30 build/cooja/mtype580.a(button-hal.o)
 .debug_aranges
                0x0000000000000690       0x30 build/cooja/mtype580.a(serial-line.o)
 .debug_aranges
                0x00000000000006c0       0x30 build/cooja/mtype580.a(gpio-hal.o)
 .debug_aranges
                0x00000000000006f0       0x30 build/cooja/mtype580.a(queuebuf.o)
 .debug_aranges
                0x0000000000000720       0x30 build/cooja/mtype580.a(packetbuf.o)
 .debug_aranges
                0x0000000000000750       0x30 build/cooja/mtype580.a(netstack.o)
 .debug_aranges
                0x0000000000000780       0x30 build/cooja/mtype580.a(linkaddr.o)
 .debug_aranges
                0x00000000000007b0       0x30 build/cooja/mtype580.a(tsch.o)
 .debug_aranges
                0x00000000000007e0       0x30 build/cooja/mtype580.a(uip-sr.o)
 .debug_aranges
                0x0000000000000810       0x30 build/cooja/mtype580.a(uip-ds6.o)
 .debug_aranges
                0x0000000000000840       0x30 build/cooja/mtype580.a(tcpip.o)
 .debug_aranges
                0x0000000000000870       0x30 build/cooja/mtype580.a(uip-ds6-route.o)
 .debug_aranges
                0x00000000000008a0       0x30 build/cooja/mtype580.a(uip-ds6-nbr.o)
 .debug_aranges
                0x00000000000008d0       0x30 build/cooja/mtype580.a(uip6.o)
 .debug_aranges
                0x0000000000000900       0x30 build/cooja/mtype580.a(uip-nd6.o)
 .debug_aranges
                0x0000000000000930       0x30 build/cooja/mtype580.a(simple-udp.o)
 .debug_aranges
                0x0000000000000960       0x30 build/cooja/mtype580.a(sicslowpan.o)
 .debug_aranges
                0x0000000000000990       0x30 build/cooja/mtype580.a(uiplib.o)
 .debug_aranges
                0x00000000000009c0       0x30 build/cooja/mtype580.a(rpl.o)
 .debug_aranges
                0x00000000000009f0       0x30 build/cooja/mtype580.a(rpl-dag-root.o)
 .debug_aranges
                0x0000000000000a20       0x30 build/cooja/mtype580.a(watchdog.o)
 .debug_aranges
                0x0000000000000a50       0x30 build/cooja/mtype580.a(int-master.o)
 .debug_aranges
                0x0000000000000a80       0x20 build/cooja/mtype580.a(cooja16.o)
 .debug_aranges
                0x0000000000000aa0       0x30 build/cooja/mtype580.a(simple-energest)
 .debug_aranges
                0x0000000000000ad0       0x30 build/cooja/mtype580.a(orchestra.o)
 .debug_aranges
                0x0000000000000b00       0x30 build/cooja/mtype580.a(orchestra-rule-)
 .debug_aranges
                0x0000000000000b30       0x30 build/cooja/mtype580.a(stimer.o)
 .debug_aranges
                0x0000000000000b60       0x30 build/cooja/mtype580.a(ringbufindex.o)
 .debug_aranges
                0x0000000000000b90       0x30 build/cooja/mtype580.a(memb.o)
 .debug_aranges
                0x0000000000000bc0       0x30 build/cooja/mtype580.a(ringbuf.o)
 .debug_aranges
                0x0000000000000bf0       0x30 build/cooja/mtype580.a(nbr-table.o)
 .debug_aranges
                0x0000000000000c20       0x30 build/cooja/mtype580.a(link-stats.o)
 .debug_aranges
                0x0000000000000c50       0x30 build/cooja/mtype580.a(mac-sequence.o)
 .debug_aranges
                0x0000000000000c80       0x30 build/cooja/mtype580.a(mac.o)
 .debug_aranges
                0x0000000000000cb0       0x30 build/cooja/mtype580.a(framer-802154.o)
 .debug_aranges
                0x0000000000000ce0       0x30 build/cooja/mtype580.a(frame802154.o)
 .debug_aranges
                0x0000000000000d10       0x30 build/cooja/mtype580.a(tsch-queue.o)
 .debug_aranges
                0x0000000000000d40       0x20 build/cooja/mtype580.a(tsch-timeslot-t)
 .debug_aranges
                0x0000000000000d60       0x30 build/cooja/mtype580.a(tsch-schedule.o)
 .debug_aranges
                0x0000000000000d90       0x30 build/cooja/mtype580.a(tsch-slot-opera)
 .debug_aranges
                0x0000000000000dc0       0x30 build/cooja/mtype580.a(tsch-packet.o)
 .debug_aranges
                0x0000000000000df0       0x30 build/cooja/mtype580.a(tsch-security.o)
 .debug_aranges
                0x0000000000000e20       0x30 build/cooja/mtype580.a(tsch-rpl.o)
 .debug_aranges
                0x0000000000000e50       0x30 build/cooja/mtype580.a(tsch-adaptive-t)
 .debug_aranges
                0x0000000000000e80       0x30 build/cooja/mtype580.a(uipbuf.o)
 .debug_aranges
                0x0000000000000eb0       0x30 build/cooja/mtype580.a(uip-icmp6.o)
 .debug_aranges
                0x0000000000000ee0       0x30 build/cooja/mtype580.a(uip-packetqueue)
 .debug_aranges
                0x0000000000000f10       0x30 build/cooja/mtype580.a(uip-udp-packet.)
 .debug_aranges
                0x0000000000000f40       0x30 build/cooja/mtype580.a(rpl-icmp6.o)
 .debug_aranges
                0x0000000000000f70       0x30 build/cooja/mtype580.a(rpl-neighbor.o)
 .debug_aranges
                0x0000000000000fa0       0x30 build/cooja/mtype580.a(rpl-dag.o)
 .debug_aranges
                0x0000000000000fd0       0x30 build/cooja/mtype580.a(rpl-timers.o)
 .debug_aranges
                0x0000000000001000       0x30 build/cooja/mtype580.a(rpl-ext-header.)
 .debug_aranges
                0x0000000000001030       0x30 build/cooja/mtype580.a(rpl-nbr-policy.)
 .debug_aranges
                0x0000000000001060       0x30 build/cooja/mtype580.a(rpl-mrhof.o)
 .debug_aranges
                0x0000000000001090       0x30 build/cooja/mtype580.a(orchestra-rule-)
 .debug_aranges
                0x00000000000010c0       0x30 build/cooja/mtype580.a(orchestra-rule-)
 .debug_aranges
                0x00000000000010f0       0x30 build/cooja/mtype580.a(ccm-star.o)
 .debug_aranges
                0x0000000000001120       0x30 build/cooja/mtype580.a(aes-128.o)
 .debug_aranges
                0x0000000000001150       0x30 build/cooja/mtype580.a(frame802154e-ie)

.debug_pubnames
 *(.debug_pubnames)

.debug_info     0x0000000000000000    0x62b78
 *(.debug_info .gnu.linkonce.wi.*)
 .debug_info    0x0000000000000000     0x16a5 node.o
 .debug_info    0x00000000000016a5     0x50e2 build/cooja/mtype580.o
 .debug_info    0x0000000000006787      0x524 build/cooja/mtype580.a(simEnvChange.o)
 .debug_info    0x0000000000006cab      0x2f2 build/cooja/mtype580.a(cooja_mt.o)
 .debug_info    0x0000000000006f9d      0x604 build/cooja/mtype580.a(cooja_mtarch.o)
 .debug_info    0x00000000000075a1      0x34b build/cooja/mtype580.a(rtimer-arch.o)
 .debug_info    0x00000000000078ec      0x38e build/cooja/mtype580.a(beep.o)
 .debug_info    0x0000000000007c7a      0x30e build/cooja/mtype580.a(leds-arch.o)
 .debug_info    0x0000000000007f88      0x27b build/cooja/mtype580.a(moteid.o)
 .debug_info    0x0000000000008203      0x3b5 build/cooja/mtype580.a(pir-sensor.o)
 .debug_info    0x00000000000085b8      0x661 build/cooja/mtype580.a(rs232.o)
 .debug_info    0x0000000000008c19      0x3b5 build/cooja/mtype580.a(vib-sensor.o)
 .debug_info    0x0000000000008fce      0x2c5 build/cooja/mtype580.a(clock.o)
 .debug_info    0x0000000000009293      0x729 build/cooja/mtype580.a(cooja-log.o)
 .debug_info    0x00000000000099bc      0x7fb build/cooja/mtype580.a(cfs-cooja.o)
 .debug_info    0x000000000000a1b7     0x1536 build/cooja/mtype580.a(cooja-radio.o)
 .debug_info    0x000000000000b6ed      0x354 build/cooja/mtype580.a(eeprom.o)
 .debug_info    0x000000000000ba41       0xc0 build/cooja/mtype580.a(random.o)
 .debug_info    0x000000000000bb01      0x43b build/cooja/mtype580.a(sensors.o)
 .debug_info    0x000000000000bf3c      0x41c build/cooja/mtype580.a(leds.o)
 .debug_info    0x000000000000c358      0xd17 build/cooja/mtype580.a(gpio-hal-arch.o)
 .debug_info    0x000000000000d06f      0xd05 build/cooja/mtype580.a(buttons.o)
 .debug_info    0x000000000000dd74     0x156e build/cooja/mtype580.a(deployment.o)
 .debug_info    0x000000000000f2e2     0x206a build/cooja/mtype580.a(contiki-main.o)
 .debug_info    0x000000000001134c      0x22f build/cooja/mtype580.a(autostart.o)
 .debug_info    0x000000000001157b      0xcb8 build/cooja/mtype580.a(log.o)
 .debug_info    0x0000000000012233      0x37a build/cooja/mtype580.a(energest.o)
 .debug_info    0x00000000000125ad      0x589 build/cooja/mtype580.a(etimer.o)
 .debug_info    0x0000000000012b36      0x5f7 build/cooja/mtype580.a(node-id.o)
 .debug_info    0x000000000001312d      0x54a build/cooja/mtype580.a(ctimer.o)
 .debug_info    0x0000000000013677      0x82d build/cooja/mtype580.a(process.o)
 .debug_info    0x0000000000013ea4      0x32b build/cooja/mtype580.a(rtimer.o)
 .debug_info    0x00000000000141cf      0x2da build/cooja/mtype580.a(timer.o)
 .debug_info    0x00000000000144a9      0x530 build/cooja/mtype580.a(list.o)
 .debug_info    0x00000000000149d9      0x77d build/cooja/mtype580.a(button-hal.o)
 .debug_info    0x0000000000015156      0x3a3 build/cooja/mtype580.a(serial-line.o)
 .debug_info    0x00000000000154f9      0xb20 build/cooja/mtype580.a(gpio-hal.o)
 .debug_info    0x0000000000016019     0x162a build/cooja/mtype580.a(queuebuf.o)
 .debug_info    0x0000000000017643     0x161a build/cooja/mtype580.a(packetbuf.o)
 .debug_info    0x0000000000018c5d      0x75b build/cooja/mtype580.a(netstack.o)
 .debug_info    0x00000000000193b8      0x303 build/cooja/mtype580.a(linkaddr.o)
 .debug_info    0x00000000000196bb     0x2fb2 build/cooja/mtype580.a(tsch.o)
 .debug_info    0x000000000001c66d     0x1678 build/cooja/mtype580.a(uip-sr.o)
 .debug_info    0x000000000001dce5     0x1741 build/cooja/mtype580.a(uip-ds6.o)
 .debug_info    0x000000000001f426     0x1a57 build/cooja/mtype580.a(tcpip.o)
 .debug_info    0x0000000000020e7d     0x169d build/cooja/mtype580.a(uip-ds6-route.o)
 .debug_info    0x000000000002251a     0x188e build/cooja/mtype580.a(uip-ds6-nbr.o)
 .debug_info    0x0000000000023da8     0x1ba6 build/cooja/mtype580.a(uip6.o)
 .debug_info    0x000000000002594e     0x14ac build/cooja/mtype580.a(uip-nd6.o)
 .debug_info    0x0000000000026dfa     0x14fa build/cooja/mtype580.a(simple-udp.o)
 .debug_info    0x00000000000282f4     0x245b build/cooja/mtype580.a(sicslowpan.o)
 .debug_info    0x000000000002a74f      0xb2f build/cooja/mtype580.a(uiplib.o)
 .debug_info    0x000000000002b27e     0x1c8f build/cooja/mtype580.a(rpl.o)
 .debug_info    0x000000000002cf0d     0x1acb build/cooja/mtype580.a(rpl-dag-root.o)
 .debug_info    0x000000000002e9d8      0x23a build/cooja/mtype580.a(watchdog.o)
 .debug_info    0x000000000002ec12      0x28b build/cooja/mtype580.a(int-master.o)
 .debug_info    0x000000000002ee9d      0x610 build/cooja/mtype580.a(cooja16.o)
 .debug_info    0x000000000002f4ad      0xceb build/cooja/mtype580.a(simple-energest)
 .debug_info    0x0000000000030198     0x21db build/cooja/mtype580.a(orchestra.o)
 .debug_info    0x0000000000032373     0x2129 build/cooja/mtype580.a(orchestra-rule-)
 .debug_info    0x000000000003449c      0x2fa build/cooja/mtype580.a(stimer.o)
 .debug_info    0x0000000000034796      0x3c7 build/cooja/mtype580.a(ringbufindex.o)
 .debug_info    0x0000000000034b5d      0x34d build/cooja/mtype580.a(memb.o)
 .debug_info    0x0000000000034eaa      0x32e build/cooja/mtype580.a(ringbuf.o)
 .debug_info    0x00000000000351d8      0xf12 build/cooja/mtype580.a(nbr-table.o)
 .debug_info    0x00000000000360ea     0x11bd build/cooja/mtype580.a(link-stats.o)
 .debug_info    0x00000000000372a7     0x1248 build/cooja/mtype580.a(mac-sequence.o)
 .debug_info    0x00000000000384ef      0x99f build/cooja/mtype580.a(mac.o)
 .debug_info    0x0000000000038e8e      0xd67 build/cooja/mtype580.a(framer-802154.o)
 .debug_info    0x0000000000039bf5      0xc51 build/cooja/mtype580.a(frame802154.o)
 .debug_info    0x000000000003a846     0x26cb build/cooja/mtype580.a(tsch-queue.o)
 .debug_info    0x000000000003cf11     0x1dd6 build/cooja/mtype580.a(tsch-timeslot-t)
 .debug_info    0x000000000003ece7     0x2672 build/cooja/mtype580.a(tsch-schedule.o)
 .debug_info    0x0000000000041359     0x30ef build/cooja/mtype580.a(tsch-slot-opera)
 .debug_info    0x0000000000044448     0x26b8 build/cooja/mtype580.a(tsch-packet.o)
 .debug_info    0x0000000000046b00     0x24fe build/cooja/mtype580.a(tsch-security.o)
 .debug_info    0x0000000000048ffe     0x1f21 build/cooja/mtype580.a(tsch-rpl.o)
 .debug_info    0x000000000004af1f     0x20f0 build/cooja/mtype580.a(tsch-adaptive-t)
 .debug_info    0x000000000004d00f      0xace build/cooja/mtype580.a(uipbuf.o)
 .debug_info    0x000000000004dadd     0x18c3 build/cooja/mtype580.a(uip-icmp6.o)
 .debug_info    0x000000000004f3a0      0xb88 build/cooja/mtype580.a(uip-packetqueue)
 .debug_info    0x000000000004ff28      0x703 build/cooja/mtype580.a(uip-udp-packet.)
 .debug_info    0x000000000005062b     0x1e15 build/cooja/mtype580.a(rpl-icmp6.o)
 .debug_info    0x0000000000052440     0x1bfb build/cooja/mtype580.a(rpl-neighbor.o)
 .debug_info    0x000000000005403b     0x1db1 build/cooja/mtype580.a(rpl-dag.o)
 .debug_info    0x0000000000055dec     0x1b36 build/cooja/mtype580.a(rpl-timers.o)
 .debug_info    0x0000000000057922     0x1fab build/cooja/mtype580.a(rpl-ext-header.)
 .debug_info    0x00000000000598cd     0x192b build/cooja/mtype580.a(rpl-nbr-policy.)
 .debug_info    0x000000000005b1f8     0x17f1 build/cooja/mtype580.a(rpl-mrhof.o)
 .debug_info    0x000000000005c9e9     0x219c build/cooja/mtype580.a(orchestra-rule-)
 .debug_info    0x000000000005eb85     0x1fe7 build/cooja/mtype580.a(orchestra-rule-)
 .debug_info    0x0000000000060b6c      0x584 build/cooja/mtype580.a(ccm-star.o)
 .debug_info    0x00000000000610f0      0x3ab build/cooja/mtype580.a(aes-128.o)
 .debug_info    0x000000000006149b     0x16dd build/cooja/mtype580.a(frame802154e-ie)

.debug_abbrev   0x0000000000000000     0xd498
 *(.debug_abbrev)
 .debug_abbrev  0x0000000000000000      0x249 node.o
 .debug_abbrev  0x0000000000000249      0x31b build/cooja/mtype580.o
 .debug_abbrev  0x0000000000000564      0x167 build/cooja/mtype580.a(simEnvChange.o)
 .debug_abbrev  0x00000000000006cb      0x173 build/cooja/mtype580.a(cooja_mt.o)
 .debug_abbrev  0x000000000000083e      0x1bd build/cooja/mtype580.a(cooja_mtarch.o)
 .debug_abbrev  0x00000000000009fb      0x18f build/cooja/mtype580.a(rtimer-arch.o)
 .debug_abbrev  0x0000000000000b8a      0x18f build/cooja/mtype580.a(beep.o)
 .debug_abbrev  0x0000000000000d19      0x15c build/cooja/mtype580.a(leds-arch.o)
 .debug_abbrev  0x0000000000000e75      0x14a build/cooja/mtype580.a(moteid.o)
 .debug_abbrev  0x0000000000000fbf      0x19a build/cooja/mtype580.a(pir-sensor.o)
 .debug_abbrev  0x0000000000001159      0x1ed build/cooja/mtype580.a(rs232.o)
 .debug_abbrev  0x0000000000001346      0x19a build/cooja/mtype580.a(vib-sensor.o)
 .debug_abbrev  0x00000000000014e0      0x18f build/cooja/mtype580.a(clock.o)
 .debug_abbrev  0x000000000000166f      0x1ff build/cooja/mtype580.a(cooja-log.o)
 .debug_abbrev  0x000000000000186e      0x1eb build/cooja/mtype580.a(cfs-cooja.o)
 .debug_abbrev  0x0000000000001a59      0x3be build/cooja/mtype580.a(cooja-radio.o)
 .debug_abbrev  0x0000000000001e17      0x180 build/cooja/mtype580.a(eeprom.o)
 .debug_abbrev  0x0000000000001f97       0x6b build/cooja/mtype580.a(random.o)
 .debug_abbrev  0x0000000000002002      0x1cd build/cooja/mtype580.a(sensors.o)
 .debug_abbrev  0x00000000000021cf      0x183 build/cooja/mtype580.a(leds.o)
 .debug_abbrev  0x0000000000002352      0x24a build/cooja/mtype580.a(gpio-hal-arch.o)
 .debug_abbrev  0x000000000000259c      0x210 build/cooja/mtype580.a(buttons.o)
 .debug_abbrev  0x00000000000027ac      0x25a build/cooja/mtype580.a(deployment.o)
 .debug_abbrev  0x0000000000002a06      0x237 build/cooja/mtype580.a(contiki-main.o)
 .debug_abbrev  0x0000000000002c3d      0x12b build/cooja/mtype580.a(autostart.o)
 .debug_abbrev  0x0000000000002d68      0x21f build/cooja/mtype580.a(log.o)
 .debug_abbrev  0x0000000000002f87      0x18f build/cooja/mtype580.a(energest.o)
 .debug_abbrev  0x0000000000003116      0x229 build/cooja/mtype580.a(etimer.o)
 .debug_abbrev  0x000000000000333f      0x180 build/cooja/mtype580.a(node-id.o)
 .debug_abbrev  0x00000000000034bf      0x1be build/cooja/mtype580.a(ctimer.o)
 .debug_abbrev  0x000000000000367d      0x27b build/cooja/mtype580.a(process.o)
 .debug_abbrev  0x00000000000038f8      0x1a6 build/cooja/mtype580.a(rtimer.o)
 .debug_abbrev  0x0000000000003a9e      0x174 build/cooja/mtype580.a(timer.o)
 .debug_abbrev  0x0000000000003c12      0x1e2 build/cooja/mtype580.a(list.o)
 .debug_abbrev  0x0000000000003df4      0x256 build/cooja/mtype580.a(button-hal.o)
 .debug_abbrev  0x000000000000404a      0x1a0 build/cooja/mtype580.a(serial-line.o)
 .debug_abbrev  0x00000000000041ea      0x1ef build/cooja/mtype580.a(gpio-hal.o)
 .debug_abbrev  0x00000000000043d9      0x2c2 build/cooja/mtype580.a(queuebuf.o)
 .debug_abbrev  0x000000000000469b      0x2db build/cooja/mtype580.a(packetbuf.o)
 .debug_abbrev  0x0000000000004976      0x205 build/cooja/mtype580.a(netstack.o)
 .debug_abbrev  0x0000000000004b7b      0x177 build/cooja/mtype580.a(linkaddr.o)
 .debug_abbrev  0x0000000000004cf2      0x40a build/cooja/mtype580.a(tsch.o)
 .debug_abbrev  0x00000000000050fc      0x2b5 build/cooja/mtype580.a(uip-sr.o)
 .debug_abbrev  0x00000000000053b1      0x31c build/cooja/mtype580.a(uip-ds6.o)
 .debug_abbrev  0x00000000000056cd      0x3cd build/cooja/mtype580.a(tcpip.o)
 .debug_abbrev  0x0000000000005a9a      0x332 build/cooja/mtype580.a(uip-ds6-route.o)
 .debug_abbrev  0x0000000000005dcc      0x2ec build/cooja/mtype580.a(uip-ds6-nbr.o)
 .debug_abbrev  0x00000000000060b8      0x303 build/cooja/mtype580.a(uip6.o)
 .debug_abbrev  0x00000000000063bb      0x270 build/cooja/mtype580.a(uip-nd6.o)
 .debug_abbrev  0x000000000000662b      0x267 build/cooja/mtype580.a(simple-udp.o)
 .debug_abbrev  0x0000000000006892      0x355 build/cooja/mtype580.a(sicslowpan.o)
 .debug_abbrev  0x0000000000006be7      0x1fd build/cooja/mtype580.a(uiplib.o)
 .debug_abbrev  0x0000000000006de4      0x31b build/cooja/mtype580.a(rpl.o)
 .debug_abbrev  0x00000000000070ff      0x299 build/cooja/mtype580.a(rpl-dag-root.o)
 .debug_abbrev  0x0000000000007398      0x10b build/cooja/mtype580.a(watchdog.o)
 .debug_abbrev  0x00000000000074a3      0x170 build/cooja/mtype580.a(int-master.o)
 .debug_abbrev  0x0000000000007613      0x168 build/cooja/mtype580.a(cooja16.o)
 .debug_abbrev  0x000000000000777b      0x24e build/cooja/mtype580.a(simple-energest)
 .debug_abbrev  0x00000000000079c9      0x2bf build/cooja/mtype580.a(orchestra.o)
 .debug_abbrev  0x0000000000007c88      0x283 build/cooja/mtype580.a(orchestra-rule-)
 .debug_abbrev  0x0000000000007f0b      0x165 build/cooja/mtype580.a(stimer.o)
 .debug_abbrev  0x0000000000008070      0x176 build/cooja/mtype580.a(ringbufindex.o)
 .debug_abbrev  0x00000000000081e6      0x15a build/cooja/mtype580.a(memb.o)
 .debug_abbrev  0x0000000000008340      0x15a build/cooja/mtype580.a(ringbuf.o)
 .debug_abbrev  0x000000000000849a      0x2a6 build/cooja/mtype580.a(nbr-table.o)
 .debug_abbrev  0x0000000000008740      0x2d3 build/cooja/mtype580.a(link-stats.o)
 .debug_abbrev  0x0000000000008a13      0x228 build/cooja/mtype580.a(mac-sequence.o)
 .debug_abbrev  0x0000000000008c3b      0x1ae build/cooja/mtype580.a(mac.o)
 .debug_abbrev  0x0000000000008de9      0x22e build/cooja/mtype580.a(framer-802154.o)
 .debug_abbrev  0x0000000000009017      0x2cc build/cooja/mtype580.a(frame802154.o)
 .debug_abbrev  0x00000000000092e3      0x370 build/cooja/mtype580.a(tsch-queue.o)
 .debug_abbrev  0x0000000000009653      0x1ee build/cooja/mtype580.a(tsch-timeslot-t)
 .debug_abbrev  0x0000000000009841      0x32b build/cooja/mtype580.a(tsch-schedule.o)
 .debug_abbrev  0x0000000000009b6c      0x3b3 build/cooja/mtype580.a(tsch-slot-opera)
 .debug_abbrev  0x0000000000009f1f      0x326 build/cooja/mtype580.a(tsch-packet.o)
 .debug_abbrev  0x000000000000a245      0x2bf build/cooja/mtype580.a(tsch-security.o)
 .debug_abbrev  0x000000000000a504      0x2ae build/cooja/mtype580.a(tsch-rpl.o)
 .debug_abbrev  0x000000000000a7b2      0x2f6 build/cooja/mtype580.a(tsch-adaptive-t)
 .debug_abbrev  0x000000000000aaa8      0x224 build/cooja/mtype580.a(uipbuf.o)
 .debug_abbrev  0x000000000000accc      0x2c7 build/cooja/mtype580.a(uip-icmp6.o)
 .debug_abbrev  0x000000000000af93      0x254 build/cooja/mtype580.a(uip-packetqueue)
 .debug_abbrev  0x000000000000b1e7      0x1cf build/cooja/mtype580.a(uip-udp-packet.)
 .debug_abbrev  0x000000000000b3b6      0x35b build/cooja/mtype580.a(rpl-icmp6.o)
 .debug_abbrev  0x000000000000b711      0x375 build/cooja/mtype580.a(rpl-neighbor.o)
 .debug_abbrev  0x000000000000ba86      0x3d4 build/cooja/mtype580.a(rpl-dag.o)
 .debug_abbrev  0x000000000000be5a      0x32c build/cooja/mtype580.a(rpl-timers.o)
 .debug_abbrev  0x000000000000c186      0x313 build/cooja/mtype580.a(rpl-ext-header.)
 .debug_abbrev  0x000000000000c499      0x292 build/cooja/mtype580.a(rpl-nbr-policy.)
 .debug_abbrev  0x000000000000c72b      0x283 build/cooja/mtype580.a(rpl-mrhof.o)
 .debug_abbrev  0x000000000000c9ae      0x2bb build/cooja/mtype580.a(orchestra-rule-)
 .debug_abbrev  0x000000000000cc69      0x240 build/cooja/mtype580.a(orchestra-rule-)
 .debug_abbrev  0x000000000000cea9      0x19a build/cooja/mtype580.a(ccm-star.o)
 .debug_abbrev  0x000000000000d043      0x184 build/cooja/mtype580.a(aes-128.o)
 .debug_abbrev  0x000000000000d1c7      0x2d1 build/cooja/mtype580.a(frame802154e-ie)

.debug_line     0x0000000000000000    0x14c20
 *(.debug_line .debug_line.* .debug_line_end)
 .debug_line    0x0000000000000000      0x446 node.o
 .debug_line    0x0000000000000446      0x681 build/cooja/mtype580.o
 .debug_line    0x0000000000000ac7      0x1d9 build/cooja/mtype580.a(simEnvChange.o)
 .debug_line    0x0000000000000ca0      0x167 build/cooja/mtype580.a(cooja_mt.o)
 .debug_line    0x0000000000000e07      0x215 build/cooja/mtype580.a(cooja_mtarch.o)
 .debug_line    0x000000000000101c      0x19f build/cooja/mtype580.a(rtimer-arch.o)
 .debug_line    0x00000000000011bb      0x12e build/cooja/mtype580.a(beep.o)
 .debug_line    0x00000000000012e9      0x18c build/cooja/mtype580.a(leds-arch.o)
 .debug_line    0x0000000000001475      0x148 build/cooja/mtype580.a(moteid.o)
 .debug_line    0x00000000000015bd      0x186 build/cooja/mtype580.a(pir-sensor.o)
 .debug_line    0x0000000000001743      0x22e build/cooja/mtype580.a(rs232.o)
 .debug_line    0x0000000000001971      0x186 build/cooja/mtype580.a(vib-sensor.o)
 .debug_line    0x0000000000001af7      0x120 build/cooja/mtype580.a(clock.o)
 .debug_line    0x0000000000001c17      0x21a build/cooja/mtype580.a(cooja-log.o)
 .debug_line    0x0000000000001e31      0x23e build/cooja/mtype580.a(cfs-cooja.o)
 .debug_line    0x000000000000206f      0x3e3 build/cooja/mtype580.a(cooja-radio.o)
 .debug_line    0x0000000000002452      0x155 build/cooja/mtype580.a(eeprom.o)
 .debug_line    0x00000000000025a7       0x51 build/cooja/mtype580.a(random.o)
 .debug_line    0x00000000000025f8      0x1b1 build/cooja/mtype580.a(sensors.o)
 .debug_line    0x00000000000027a9      0x20a build/cooja/mtype580.a(leds.o)
 .debug_line    0x00000000000029b3      0x2fd build/cooja/mtype580.a(gpio-hal-arch.o)
 .debug_line    0x0000000000002cb0      0x296 build/cooja/mtype580.a(buttons.o)
 .debug_line    0x0000000000002f46      0x3c4 build/cooja/mtype580.a(deployment.o)
 .debug_line    0x000000000000330a      0x5bc build/cooja/mtype580.a(contiki-main.o)
 .debug_line    0x00000000000038c6      0x120 build/cooja/mtype580.a(autostart.o)
 .debug_line    0x00000000000039e6      0x2a0 build/cooja/mtype580.a(log.o)
 .debug_line    0x0000000000003c86      0x19b build/cooja/mtype580.a(energest.o)
 .debug_line    0x0000000000003e21      0x1f4 build/cooja/mtype580.a(etimer.o)
 .debug_line    0x0000000000004015      0x188 build/cooja/mtype580.a(node-id.o)
 .debug_line    0x000000000000419d      0x1c1 build/cooja/mtype580.a(ctimer.o)
 .debug_line    0x000000000000435e      0x2ab build/cooja/mtype580.a(process.o)
 .debug_line    0x0000000000004609      0x15b build/cooja/mtype580.a(rtimer.o)
 .debug_line    0x0000000000004764      0x119 build/cooja/mtype580.a(timer.o)
 .debug_line    0x000000000000487d      0x1d0 build/cooja/mtype580.a(list.o)
 .debug_line    0x0000000000004a4d      0x29e build/cooja/mtype580.a(button-hal.o)
 .debug_line    0x0000000000004ceb      0x1e4 build/cooja/mtype580.a(serial-line.o)
 .debug_line    0x0000000000004ecf      0x253 build/cooja/mtype580.a(gpio-hal.o)
 .debug_line    0x0000000000005122      0x380 build/cooja/mtype580.a(queuebuf.o)
 .debug_line    0x00000000000054a2      0x3c3 build/cooja/mtype580.a(packetbuf.o)
 .debug_line    0x0000000000005865      0x233 build/cooja/mtype580.a(netstack.o)
 .debug_line    0x0000000000005a98      0x15b build/cooja/mtype580.a(linkaddr.o)
 .debug_line    0x0000000000005bf3      0xaff build/cooja/mtype580.a(tsch.o)
 .debug_line    0x00000000000066f2      0x4ae build/cooja/mtype580.a(uip-sr.o)
 .debug_line    0x0000000000006ba0      0x56d build/cooja/mtype580.a(uip-ds6.o)
 .debug_line    0x000000000000710d      0x4b5 build/cooja/mtype580.a(tcpip.o)
 .debug_line    0x00000000000075c2      0x47c build/cooja/mtype580.a(uip-ds6-route.o)
 .debug_line    0x0000000000007a3e      0x4a5 build/cooja/mtype580.a(uip-ds6-nbr.o)
 .debug_line    0x0000000000007ee3      0x8fb build/cooja/mtype580.a(uip6.o)
 .debug_line    0x00000000000087de      0x551 build/cooja/mtype580.a(uip-nd6.o)
 .debug_line    0x0000000000008d2f      0x39b build/cooja/mtype580.a(simple-udp.o)
 .debug_line    0x00000000000090ca      0xbd0 build/cooja/mtype580.a(sicslowpan.o)
 .debug_line    0x0000000000009c9a      0x31f build/cooja/mtype580.a(uiplib.o)
 .debug_line    0x0000000000009fb9      0x50e build/cooja/mtype580.a(rpl.o)
 .debug_line    0x000000000000a4c7      0x492 build/cooja/mtype580.a(rpl-dag-root.o)
 .debug_line    0x000000000000a959      0x11f build/cooja/mtype580.a(watchdog.o)
 .debug_line    0x000000000000aa78      0x152 build/cooja/mtype580.a(int-master.o)
 .debug_line    0x000000000000abca      0x1af build/cooja/mtype580.a(cooja16.o)
 .debug_line    0x000000000000ad79      0x2b5 build/cooja/mtype580.a(simple-energest)
 .debug_line    0x000000000000b02e      0x504 build/cooja/mtype580.a(orchestra.o)
 .debug_line    0x000000000000b532      0x4f3 build/cooja/mtype580.a(orchestra-rule-)
 .debug_line    0x000000000000ba25      0x120 build/cooja/mtype580.a(stimer.o)
 .debug_line    0x000000000000bb45      0x193 build/cooja/mtype580.a(ringbufindex.o)
 .debug_line    0x000000000000bcd8      0x17b build/cooja/mtype580.a(memb.o)
 .debug_line    0x000000000000be53      0x17b build/cooja/mtype580.a(ringbuf.o)
 .debug_line    0x000000000000bfce      0x3ce build/cooja/mtype580.a(nbr-table.o)
 .debug_line    0x000000000000c39c      0x37a build/cooja/mtype580.a(link-stats.o)
 .debug_line    0x000000000000c716      0x370 build/cooja/mtype580.a(mac-sequence.o)
 .debug_line    0x000000000000ca86      0x208 build/cooja/mtype580.a(mac.o)
 .debug_line    0x000000000000cc8e      0x2f4 build/cooja/mtype580.a(framer-802154.o)
 .debug_line    0x000000000000cf82      0x3d4 build/cooja/mtype580.a(frame802154.o)
 .debug_line    0x000000000000d356      0x652 build/cooja/mtype580.a(tsch-queue.o)
 .debug_line    0x000000000000d9a8      0x427 build/cooja/mtype580.a(tsch-timeslot-t)
 .debug_line    0x000000000000ddcf      0x6cb build/cooja/mtype580.a(tsch-schedule.o)
 .debug_line    0x000000000000e49a      0x955 build/cooja/mtype580.a(tsch-slot-opera)
 .debug_line    0x000000000000edef      0x5d1 build/cooja/mtype580.a(tsch-packet.o)
 .debug_line    0x000000000000f3c0      0x582 build/cooja/mtype580.a(tsch-security.o)
 .debug_line    0x000000000000f942      0x468 build/cooja/mtype580.a(tsch-rpl.o)
 .debug_line    0x000000000000fdaa      0x4bc build/cooja/mtype580.a(tsch-adaptive-t)
 .debug_line    0x0000000000010266      0x269 build/cooja/mtype580.a(uipbuf.o)
 .debug_line    0x00000000000104cf      0x573 build/cooja/mtype580.a(uip-icmp6.o)
 .debug_line    0x0000000000010a42      0x275 build/cooja/mtype580.a(uip-packetqueue)
 .debug_line    0x0000000000010cb7      0x1d2 build/cooja/mtype580.a(uip-udp-packet.)
 .debug_line    0x0000000000010e89      0x8b2 build/cooja/mtype580.a(rpl-icmp6.o)
 .debug_line    0x000000000001173b      0x5e3 build/cooja/mtype580.a(rpl-neighbor.o)
 .debug_line    0x0000000000011d1e      0x78c build/cooja/mtype580.a(rpl-dag.o)
 .debug_line    0x00000000000124aa      0x53a build/cooja/mtype580.a(rpl-timers.o)
 .debug_line    0x00000000000129e4      0x703 build/cooja/mtype580.a(rpl-ext-header.)
 .debug_line    0x00000000000130e7      0x3a9 build/cooja/mtype580.a(rpl-nbr-policy.)
 .debug_line    0x0000000000013490      0x452 build/cooja/mtype580.a(rpl-mrhof.o)
 .debug_line    0x00000000000138e2      0x4f9 build/cooja/mtype580.a(orchestra-rule-)
 .debug_line    0x0000000000013ddb      0x47f build/cooja/mtype580.a(orchestra-rule-)
 .debug_line    0x000000000001425a      0x24b build/cooja/mtype580.a(ccm-star.o)
 .debug_line    0x00000000000144a5      0x264 build/cooja/mtype580.a(aes-128.o)
 .debug_line    0x0000000000014709      0x517 build/cooja/mtype580.a(frame802154e-ie)

.debug_frame
 *(.debug_frame)

.debug_str      0x0000000000000000     0xac59
 *(.debug_str)
 .debug_str     0x0000000000000000      0xccf node.o
                                        0xf74 (size before relaxing)
 .debug_str     0x0000000000000ccf     0x2088 build/cooja/mtype580.o
                                       0x3108 (size before relaxing)
 .debug_str     0x0000000000002d57       0x30 build/cooja/mtype580.a(simEnvChange.o)
                                        0x447 (size before relaxing)
 .debug_str     0x0000000000002d87       0x58 build/cooja/mtype580.a(cooja_mt.o)
                                        0x29d (size before relaxing)
 .debug_str     0x0000000000002ddf       0x97 build/cooja/mtype580.a(cooja_mtarch.o)
                                        0x4ba (size before relaxing)
 .debug_str     0x0000000000002e76      0x124 build/cooja/mtype580.a(rtimer-arch.o)
                                        0x364 (size before relaxing)
 .debug_str     0x0000000000002f9a       0xc6 build/cooja/mtype580.a(beep.o)
                                        0x305 (size before relaxing)
 .debug_str     0x0000000000003060       0x9e build/cooja/mtype580.a(leds-arch.o)
                                        0x329 (size before relaxing)
 .debug_str     0x00000000000030fe       0x49 build/cooja/mtype580.a(moteid.o)
                                        0x2c8 (size before relaxing)
 .debug_str     0x0000000000003147       0x57 build/cooja/mtype580.a(pir-sensor.o)
                                        0x31d (size before relaxing)
 .debug_str     0x000000000000319e       0xc3 build/cooja/mtype580.a(rs232.o)
                                        0x57d (size before relaxing)
 .debug_str     0x0000000000003261       0x57 build/cooja/mtype580.a(vib-sensor.o)
                                        0x31d (size before relaxing)
 .debug_str     0x00000000000032b8       0x64 build/cooja/mtype580.a(clock.o)
                                        0x2d8 (size before relaxing)
 .debug_str     0x000000000000331c       0xfa build/cooja/mtype580.a(cooja-log.o)
                                        0x59f (size before relaxing)
 .debug_str     0x0000000000003416      0x10e build/cooja/mtype580.a(cfs-cooja.o)
                                        0x568 (size before relaxing)
 .debug_str     0x0000000000003524      0x7ce build/cooja/mtype580.a(cooja-radio.o)
                                       0x1113 (size before relaxing)
 .debug_str     0x0000000000003cf2       0x9b build/cooja/mtype580.a(eeprom.o)
                                        0x315 (size before relaxing)
 .debug_str     0x0000000000003d8d       0x36 build/cooja/mtype580.a(random.o)
                                        0x157 (size before relaxing)
 .debug_str     0x0000000000003dc3       0x8e build/cooja/mtype580.a(sensors.o)
                                        0x310 (size before relaxing)
 .debug_str     0x0000000000003e51       0x8d build/cooja/mtype580.a(leds.o)
                                        0x2f2 (size before relaxing)
 .debug_str     0x0000000000003ede      0x2a8 build/cooja/mtype580.a(gpio-hal-arch.o)
                                        0xa13 (size before relaxing)
 .debug_str     0x0000000000004186       0xf7 build/cooja/mtype580.a(buttons.o)
                                        0x9ec (size before relaxing)
 .debug_str     0x000000000000427d       0xed build/cooja/mtype580.a(deployment.o)
                                        0xe18 (size before relaxing)
 .debug_str     0x000000000000436a      0x284 build/cooja/mtype580.a(contiki-main.o)
                                       0x1aeb (size before relaxing)
 .debug_str     0x00000000000045ee       0x3b build/cooja/mtype580.a(autostart.o)
                                        0x23c (size before relaxing)
 .debug_str     0x0000000000004629       0xb3 build/cooja/mtype580.a(log.o)
                                        0x835 (size before relaxing)
 .debug_str     0x00000000000046dc       0x55 build/cooja/mtype580.a(energest.o)
                                        0x365 (size before relaxing)
 .debug_str     0x0000000000004731      0x153 build/cooja/mtype580.a(etimer.o)
                                        0x384 (size before relaxing)
 .debug_str     0x0000000000004884       0x27 build/cooja/mtype580.a(node-id.o)
                                        0x46c (size before relaxing)
 .debug_str     0x00000000000048ab       0xc6 build/cooja/mtype580.a(ctimer.o)
                                        0x320 (size before relaxing)
 .debug_str     0x0000000000004971      0x14a build/cooja/mtype580.a(process.o)
                                        0x533 (size before relaxing)
 .debug_str     0x0000000000004abb       0xaa build/cooja/mtype580.a(rtimer.o)
                                        0x2df (size before relaxing)
 .debug_str     0x0000000000004b65       0x18 build/cooja/mtype580.a(timer.o)
                                        0x26b (size before relaxing)
 .debug_str     0x0000000000004b7d       0xb7 build/cooja/mtype580.a(list.o)
                                        0x2ca (size before relaxing)
 .debug_str     0x0000000000004c34      0x197 build/cooja/mtype580.a(button-hal.o)
                                        0x573 (size before relaxing)
 .debug_str     0x0000000000004dcb       0x83 build/cooja/mtype580.a(serial-line.o)
                                        0x2f5 (size before relaxing)
 .debug_str     0x0000000000004e4e       0xfd build/cooja/mtype580.a(gpio-hal.o)
                                        0x8d8 (size before relaxing)
 .debug_str     0x0000000000004f4b      0x1be build/cooja/mtype580.a(queuebuf.o)
                                        0xf22 (size before relaxing)
 .debug_str     0x0000000000005109      0x1b7 build/cooja/mtype580.a(packetbuf.o)
                                        0xf57 (size before relaxing)
 .debug_str     0x00000000000052c0      0x16a build/cooja/mtype580.a(netstack.o)
                                        0x5ae (size before relaxing)
 .debug_str     0x000000000000542a       0x53 build/cooja/mtype580.a(linkaddr.o)
                                        0x295 (size before relaxing)
 .debug_str     0x000000000000547d      0x826 build/cooja/mtype580.a(tsch.o)
                                       0x2575 (size before relaxing)
 .debug_str     0x0000000000005ca3      0x18c build/cooja/mtype580.a(uip-sr.o)
                                        0xe8b (size before relaxing)
 .debug_str     0x0000000000005e2f      0x2ea build/cooja/mtype580.a(uip-ds6.o)
                                        0xe9f (size before relaxing)
 .debug_str     0x0000000000006119      0x279 build/cooja/mtype580.a(tcpip.o)
                                       0x11a8 (size before relaxing)
 .debug_str     0x0000000000006392      0x225 build/cooja/mtype580.a(uip-ds6-route.o)
                                        0xf12 (size before relaxing)
 .debug_str     0x00000000000065b7      0x1c5 build/cooja/mtype580.a(uip-ds6-nbr.o)
                                       0x113f (size before relaxing)
 .debug_str     0x000000000000677c      0x211 build/cooja/mtype580.a(uip6.o)
                                       0x1102 (size before relaxing)
 .debug_str     0x000000000000698d      0x120 build/cooja/mtype580.a(uip-nd6.o)
                                        0xea6 (size before relaxing)
 .debug_str     0x0000000000006aad       0xac build/cooja/mtype580.a(simple-udp.o)
                                        0xd09 (size before relaxing)
 .debug_str     0x0000000000006b59      0x598 build/cooja/mtype580.a(sicslowpan.o)
                                       0x17d2 (size before relaxing)
 .debug_str     0x00000000000070f1       0x93 build/cooja/mtype580.a(uiplib.o)
                                        0x7ec (size before relaxing)
 .debug_str     0x0000000000007184      0x122 build/cooja/mtype580.a(rpl.o)
                                       0x137f (size before relaxing)
 .debug_str     0x00000000000072a6       0xa4 build/cooja/mtype580.a(rpl-dag-root.o)
                                       0x130f (size before relaxing)
 .debug_str     0x000000000000734a       0x79 build/cooja/mtype580.a(watchdog.o)
                                        0x270 (size before relaxing)
 .debug_str     0x00000000000073c3       0x8b build/cooja/mtype580.a(int-master.o)
                                        0x2b7 (size before relaxing)
 .debug_str     0x000000000000744e       0x16 build/cooja/mtype580.a(cooja16.o)
                                        0x475 (size before relaxing)
 .debug_str     0x0000000000007464      0x153 build/cooja/mtype580.a(simple-energest)
                                        0xa0d (size before relaxing)
 .debug_str     0x00000000000075b7      0x121 build/cooja/mtype580.a(orchestra.o)
                                       0x1c98 (size before relaxing)
 .debug_str     0x00000000000076d8       0x73 build/cooja/mtype580.a(orchestra-rule-)
                                       0x1b95 (size before relaxing)
 .debug_str     0x000000000000774b       0x6f build/cooja/mtype580.a(stimer.o)
                                        0x27c (size before relaxing)
 .debug_str     0x00000000000077ba       0xcc build/cooja/mtype580.a(ringbufindex.o)
                                        0x2fc (size before relaxing)
 .debug_str     0x0000000000007886       0x5d build/cooja/mtype580.a(memb.o)
                                        0x269 (size before relaxing)
 .debug_str     0x00000000000078e3       0x5d build/cooja/mtype580.a(ringbuf.o)
                                        0x295 (size before relaxing)
 .debug_str     0x0000000000007940      0x268 build/cooja/mtype580.a(nbr-table.o)
                                        0x870 (size before relaxing)
 .debug_str     0x0000000000007ba8      0x12c build/cooja/mtype580.a(link-stats.o)
                                        0xe97 (size before relaxing)
 .debug_str     0x0000000000007cd4       0x69 build/cooja/mtype580.a(mac-sequence.o)
                                        0xdb1 (size before relaxing)
 .debug_str     0x0000000000007d3d       0x38 build/cooja/mtype580.a(mac.o)
                                        0x7b4 (size before relaxing)
 .debug_str     0x0000000000007d75       0x82 build/cooja/mtype580.a(framer-802154.o)
                                        0xc06 (size before relaxing)
 .debug_str     0x0000000000007df7      0x1f5 build/cooja/mtype580.a(frame802154.o)
                                        0x850 (size before relaxing)
 .debug_str     0x0000000000007fec      0x3ac build/cooja/mtype580.a(tsch-queue.o)
                                       0x1f1b (size before relaxing)
 .debug_str     0x0000000000008398       0x30 build/cooja/mtype580.a(tsch-timeslot-t)
                                       0x1819 (size before relaxing)
 .debug_str     0x00000000000083c8      0x351 build/cooja/mtype580.a(tsch-schedule.o)
                                       0x1b91 (size before relaxing)
 .debug_str     0x0000000000008719      0x5e8 build/cooja/mtype580.a(tsch-slot-opera)
                                       0x276e (size before relaxing)
 .debug_str     0x0000000000008d01      0x180 build/cooja/mtype580.a(tsch-packet.o)
                                       0x1f20 (size before relaxing)
 .debug_str     0x0000000000008e81      0x124 build/cooja/mtype580.a(tsch-security.o)
                                       0x1cc4 (size before relaxing)
 .debug_str     0x0000000000008fa5      0x101 build/cooja/mtype580.a(tsch-rpl.o)
                                       0x19ed (size before relaxing)
 .debug_str     0x00000000000090a6      0x1df build/cooja/mtype580.a(tsch-adaptive-t)
                                       0x1a2f (size before relaxing)
 .debug_str     0x0000000000009285      0x1b2 build/cooja/mtype580.a(uipbuf.o)
                                        0x72a (size before relaxing)
 .debug_str     0x0000000000009437      0x1f0 build/cooja/mtype580.a(uip-icmp6.o)
                                       0x10da (size before relaxing)
 .debug_str     0x0000000000009627       0xf6 build/cooja/mtype580.a(uip-packetqueue)
                                        0x7c0 (size before relaxing)
 .debug_str     0x000000000000971d       0x6e build/cooja/mtype580.a(uip-udp-packet.)
                                        0x4db (size before relaxing)
 .debug_str     0x000000000000978b      0x1d2 build/cooja/mtype580.a(rpl-icmp6.o)
                                       0x15b9 (size before relaxing)
 .debug_str     0x000000000000995d      0x283 build/cooja/mtype580.a(rpl-neighbor.o)
                                       0x1302 (size before relaxing)
 .debug_str     0x0000000000009be0      0x2db build/cooja/mtype580.a(rpl-dag.o)
                                       0x1432 (size before relaxing)
 .debug_str     0x0000000000009ebb      0x316 build/cooja/mtype580.a(rpl-timers.o)
                                       0x132e (size before relaxing)
 .debug_str     0x000000000000a1d1      0x1be build/cooja/mtype580.a(rpl-ext-header.)
                                       0x1747 (size before relaxing)
 .debug_str     0x000000000000a38f       0x9e build/cooja/mtype580.a(rpl-nbr-policy.)
                                       0x12c9 (size before relaxing)
 .debug_str     0x000000000000a42d       0xc2 build/cooja/mtype580.a(rpl-mrhof.o)
                                       0x1091 (size before relaxing)
 .debug_str     0x000000000000a4ef       0x86 build/cooja/mtype580.a(orchestra-rule-)
                                       0x1bd2 (size before relaxing)
 .debug_str     0x000000000000a575       0x49 build/cooja/mtype580.a(orchestra-rule-)
                                       0x197e (size before relaxing)
 .debug_str     0x000000000000a5be       0x40 build/cooja/mtype580.a(ccm-star.o)
                                        0x2d4 (size before relaxing)
 .debug_str     0x000000000000a5fe       0x5d build/cooja/mtype580.a(aes-128.o)
                                        0x28b (size before relaxing)
 .debug_str     0x000000000000a65b      0x5fe build/cooja/mtype580.a(frame802154e-ie)
                                       0x1220 (size before relaxing)

.debug_loc
 *(.debug_loc)

.debug_macinfo
 *(.debug_macinfo)

.debug_weaknames
 *(.debug_weaknames)

.debug_funcnames
 *(.debug_funcnames)

.debug_typenames
 *(.debug_typenames)

.debug_varnames
 *(.debug_varnames)

.debug_pubtypes
 *(.debug_pubtypes)

.debug_ranges   0x0000000000000000      0x2e0
 *(.debug_ranges)
 .debug_ranges  0x0000000000000000       0x30 build/cooja/mtype580.a(etimer.o)
 .debug_ranges  0x0000000000000030       0xc0 build/cooja/mtype580.a(tsch.o)
 .debug_ranges  0x00000000000000f0       0x30 build/cooja/mtype580.a(tcpip.o)
 .debug_ranges  0x0000000000000120       0x50 build/cooja/mtype580.a(uip-nd6.o)
 .debug_ranges  0x0000000000000170       0x90 build/cooja/mtype580.a(sicslowpan.o)
 .debug_ranges  0x0000000000000200       0x60 build/cooja/mtype580.a(nbr-table.o)
 .debug_ranges  0x0000000000000260       0x80 build/cooja/mtype580.a(tsch-slot-opera)

.debug_macro
 *(.debug_macro)

.debug_addr
 *(.debug_addr)

.gnu.attributes
 *(.gnu.attributes)

/DISCARD/
 *(.note.GNU-stack)
 *(.gnu_debuglink)
 *(.gnu.lto_*)
OUTPUT(build/cooja/mtype580.cooja elf64-x86-64)
